(dp0
ccopy_reg
_reconstructor
p1
(cbson.objectid
ObjectId
p2
c__builtin__
object
p3
Ntp4
Rp5
S'U\x01@\xc2w\x8d\x17\x15\xb9B\x16_'
p6
b(dp7
Vstatus
p8
Vopen
p9
sVname
p10
V\u4e0a\u6d77\u79d1\u5b66\u6280\u672f\u804c\u4e1a\u5b66\u9662\u4e3b\u6821\u533a
p11
sVschool_district
p12
g1
(g2
g3
Ntp13
Rp14
S'U\x01@\xb6w\x8d\x17\x15\xb9B\x0e{'
p15
bsVmobile
p16
V13127733907
p17
sVmin_cost_to_deliver
p18
I0
sVdelivery_price
p19
I100
sVimage_id
p20
g1
(g2
g3
Ntp21
Rp22
S'U\x01@\xacw\x8d\x17\x15\xb9B\r\xfd'
p23
bsVopen_hour
p24
(lp25
I0
aI86400
asVlocation
p26
(lp27
F121.257508
aF31.387219
asVaddress
p28
V\u4e0a\u6d77\u5e02\u5609\u5b9a\u533a\u5854\u57ce\u8def322
p29
sVcreated_time
p30
L1426145474161L
sV_id
p31
g5
sVtype
p32
Vcvs
p33
ssg1
(g2
g3
Ntp34
Rp35
S'U\x01@\xc1w\x8d\x17\x15\xb9B\x14g'
p36
b(dp37
Vstatus
p38
Vopen
p39
sVname
p40
V\u6cb3\u5317\u79d1\u6280\u5e08\u8303\u5b66\u9662\u79e6\u7687\u5c9b\u6821\u533a
p41
sVschool_district
p42
g1
(g2
g3
Ntp43
Rp44
S'U\x01@\xb0w\x8d\x17\x15\xb9B\x0e-'
p45
bsVmobile
p46
V18716009287
p47
sVmin_cost_to_deliver
p48
I0
sVdelivery_price
p49
I100
sVimage_id
p50
g1
(g2
g3
Ntp51
Rp52
S'U\x01@\xacw\x8d\x17\x15\xb9B\r\xfd'
p53
bsVopen_hour
p54
(lp55
I0
aI86400
asVlocation
p56
(lp57
F119.549639
aF39.912337
asVaddress
p58
V\u6cb3\u5317\u7701\u79e6\u7687\u5c9b\u5e02\u6d77\u6e2f\u533a\u6cb3\u5317\u5927\u8857\u897f\u6bb5
p59
sVcreated_time
p60
L1426145473987L
sV_id
p61
g35
sVtype
p62
Vcvs
p63
ssg1
(g2
g3
Ntp64
Rp65
S'U\x01@\xc2w\x8d\x17\x15\xb9B\x14\xd7'
p66
b(dp67
Vstatus
p68
Vopen
p69
sVname
p70
V\u6cb3\u5357\u7701\u53f8\u6cd5\u8b66\u5b98\u804c\u4e1a\u5b66\u9662\u65b0\u6821\u533a
p71
sVschool_district
p72
g1
(g2
g3
Ntp73
Rp74
S'U\x01@\xb1w\x8d\x17\x15\xb9B\x0e;'
p75
bsVmobile
p76
V18838977808
p77
sVmin_cost_to_deliver
p78
I0
sVdelivery_price
p79
I100
sVimage_id
p80
g1
(g2
g3
Ntp81
Rp82
S'U\x01@\xacw\x8d\x17\x15\xb9B\r\xfd'
p83
bsVopen_hour
p84
(lp85
I0
aI86400
asVlocation
p86
(lp87
F113.812986
aF34.780615
asVaddress
p88
V\u6cb3\u5357\u7701\u90d1\u5dde\u5e02\u91d1\u6c34\u533a\u91d1\u6c34\u4e1c\u8def
p89
sVcreated_time
p90
L1426145474024L
sV_id
p91
g65
sVtype
p92
Vcvs
p93
ssg1
(g2
g3
Ntp94
Rp95
S'U\x01@\xc2w\x8d\x17\x15\xb9B\x17\x1f'
p96
b(dp97
Vstatus
p98
Vopen
p99
sVname
p100
V\u6b66\u6c49\u5de5\u7a0b\u5927\u5b66\u6d41\u82b3\u6821\u533a
p101
sVschool_district
p102
g1
(g2
g3
Ntp103
Rp104
S'U\x01@\xb8w\x8d\x17\x15\xb9B\x0e\x95'
p105
bsVmobile
p106
V18672779353
p107
sVmin_cost_to_deliver
p108
I0
sVdelivery_price
p109
I100
sVimage_id
p110
g1
(g2
g3
Ntp111
Rp112
S'U\x01@\xacw\x8d\x17\x15\xb9B\r\xfd'
p113
bsVopen_hour
p114
(lp115
I0
aI86400
asVlocation
p116
(lp117
F114.432316
aF30.457932
asVaddress
p118
V\u6e56\u5317\u7701\u6b66\u6c49\u5e02\u6c5f\u590f\u533a\u6d41\u82b3\u56ed\u897f\u8def
p119
sVcreated_time
p120
L1426145474217L
sV_id
p121
g95
sVtype
p122
Vcvs
p123
ssg1
(g2
g3
Ntp124
Rp125
S'U\x01@\xc1w\x8d\x17\x15\xb9B\x0f7'
p126
b(dp127
Vstatus
p128
Vopen
p129
sVname
p130
V\u56db\u5ddd\u957f\u6c5f\u804c\u4e1a\u5b66\u9662\u4e3b\u6821\u533a
p131
sVschool_district
p132
g1
(g2
g3
Ntp133
Rp134
S'U\x01@\xc0w\x8d\x17\x15\xb9B\x0e\xfa'
p135
bsVmobile
p136
V18608040484 1858166732
p137
sVmin_cost_to_deliver
p138
I0
sVdelivery_price
p139
I100
sVimage_id
p140
g1
(g2
g3
Ntp141
Rp142
S'U\x01@\xacw\x8d\x17\x15\xb9B\r\xfd'
p143
bsVopen_hour
p144
(lp145
I0
aI86400
asVlocation
p146
(lp147
F104.170763
aF30.651753
asVaddress
p148
V\u56db\u5ddd\u7701\u6210\u90fd\u5e02\u9f99\u6cc9\u9a7f\u533a\u6210\u6d1b\u8def\u4e00\u6bb51\u53f7
p149
sVcreated_time
p150
L1426145473568L
sV_id
p151
g125
sVtype
p152
Vcvs
p153
ssg1
(g2
g3
Ntp154
Rp155
S'U\x01@\xc2w\x8d\x17\x15\xb9B\x15\x9f'
p156
b(dp157
Vstatus
p158
Vopen
p159
sVname
p160
V\u91d1\u80af\u804c\u4e1a\u6280\u672f\u5b66\u9662\u4e3b\u6821\u533a
p161
sVschool_district
p162
g1
(g2
g3
Ntp163
Rp164
S'U\x01@\xb4w\x8d\x17\x15\xb9B\x0e\\'
p165
bsVmobile
p166
V15251817880
p167
sVmin_cost_to_deliver
p168
I0
sVdelivery_price
p169
I100
sVimage_id
p170
g1
(g2
g3
Ntp171
Rp172
S'U\x01@\xacw\x8d\x17\x15\xb9B\r\xfd'
p173
bsVopen_hour
p174
(lp175
I0
aI86400
asVlocation
p176
(lp177
F118.879837
aF31.684962
asVaddress
p178
V\u6c5f\u82cf\u7701\u5357\u4eac\u5e02\u6c5f\u5b81\u533a\u94dc\u666f\u8def
p179
sVcreated_time
p180
L1426145474090L
sV_id
p181
g155
sVtype
p182
Vcvs
p183
ssg1
(g2
g3
Ntp184
Rp185
S'U\x01@\xc2w\x8d\x17\x15\xb9B\x16W'
p186
b(dp187
Vstatus
p188
Vopen
p189
sVname
p190
V\u4e0a\u6d77\u6d77\u4e8b\u5927\u5b66\u4e34\u6e2f\u6821\u533a
p191
sVschool_district
p192
g1
(g2
g3
Ntp193
Rp194
S'U\x01@\xb6w\x8d\x17\x15\xb9B\x0ez'
p195
bsVmobile
p196
V13262729796
p197
sVmin_cost_to_deliver
p198
I0
sVdelivery_price
p199
I100
sVimage_id
p200
g1
(g2
g3
Ntp201
Rp202
S'U\x01@\xacw\x8d\x17\x15\xb9B\r\xfd'
p203
bsVopen_hour
p204
(lp205
I0
aI86400
asVlocation
p206
(lp207
F121.909007
aF30.871721
asVaddress
p208
V\u4e0a\u6d77\u5e02\u6d66\u4e1c\u65b0\u533a\u4e1c\u6d77\u5927\u6865
p209
sVcreated_time
p210
L1426145474157L
sV_id
p211
g185
sVtype
p212
Vcvs
p213
ssg1
(g2
g3
Ntp214
Rp215
S'U\x01@\xc1w\x8d\x17\x15\xb9B\x14o'
p216
b(dp217
Vstatus
p218
Vopen
p219
sVname
p220
V\u6cb3\u5317\u79d1\u6280\u5e08\u8303\u5b66\u9662\u5f00\u53d1\u533a\u6821\u533a
p221
sVschool_district
p222
g1
(g2
g3
Ntp223
Rp224
S'U\x01@\xb0w\x8d\x17\x15\xb9B\x0e.'
p225
bsVmobile
p226
V18716009287
p227
sVmin_cost_to_deliver
p228
I0
sVdelivery_price
p229
I100
sVimage_id
p230
g1
(g2
g3
Ntp231
Rp232
S'U\x01@\xacw\x8d\x17\x15\xb9B\r\xfd'
p233
bsVopen_hour
p234
(lp235
I0
aI86400
asVlocation
p236
(lp237
F119.526036
aF39.930324
asVaddress
p238
V\u6cb3\u5317\u7701\u79e6\u7687\u5c9b\u5e02\u6d77\u6e2f\u533a\u5929\u5c71\u5357\u8def
p239
sVcreated_time
p240
L1426145473990L
sV_id
p241
g215
sVtype
p242
Vcvs
p243
ssg1
(g2
g3
Ntp244
Rp245
S'U\x01@\xc2w\x8d\x17\x15\xb9B\x14\xdf'
p246
b(dp247
Vstatus
p248
Vopen
p249
sVname
p250
V\u6e56\u5317\u57ce\u5e02\u5efa\u8bbe\u804c\u4e1a\u6280\u672f\u5b66\u9662\u4e3b\u6821\u533a
p251
sVschool_district
p252
g1
(g2
g3
Ntp253
Rp254
S'U\x01@\xb1w\x8d\x17\x15\xb9B\x0e<'
p255
bsVmobile
p256
V15871355631
p257
sVmin_cost_to_deliver
p258
I0
sVdelivery_price
p259
I100
sVimage_id
p260
g1
(g2
g3
Ntp261
Rp262
S'U\x01@\xacw\x8d\x17\x15\xb9B\r\xfd'
p263
bsVopen_hour
p264
(lp265
I0
aI86400
asVlocation
p266
(lp267
F114.435214
aF30.404989
asVaddress
p268
V\u6e56\u5317\u7701\u6b66\u6c49\u5e02\u6c5f\u590f\u533a\u6768\u6865\u6e56\u5357\u8def
p269
sVcreated_time
p270
L1426145474026L
sV_id
p271
g245
sVtype
p272
Vcvs
p273
ssg1
(g2
g3
Ntp274
Rp275
S'U\x01@\xc2w\x8d\x17\x15\xb9B\x17\x17'
p276
b(dp277
Vstatus
p278
Vopen
p279
sVname
p280
V\u6b66\u6c49\u7eba\u7ec7\u5927\u5b66\u9633\u5149\u6821\u533a
p281
sVschool_district
p282
g1
(g2
g3
Ntp283
Rp284
S'U\x01@\xb8w\x8d\x17\x15\xb9B\x0e\x94'
p285
bsVmobile
p286
V15527842334
p287
sVmin_cost_to_deliver
p288
I0
sVdelivery_price
p289
I100
sVimage_id
p290
g1
(g2
g3
Ntp291
Rp292
S'U\x01@\xacw\x8d\x17\x15\xb9B\r\xfd'
p293
bsVopen_hour
p294
(lp295
I0
aI86400
asVlocation
p296
(lp297
F114.337205
aF30.375911
asVaddress
p298
V\u6e56\u5317\u7701\u6b66\u6c49\u5e02\u6c5f\u590f\u533a\u4e16\u7eaa\u5927\u8857
p299
sVcreated_time
p300
L1426145474215L
sV_id
p301
g275
sVtype
p302
Vcvs
p303
ssg1
(g2
g3
Ntp304
Rp305
S'U\x01@\xc1w\x8d\x17\x15\xb9B\x0f?'
p306
b(dp307
Vstatus
p308
Vopen
p309
sVname
p310
V\u6210\u90fd\u5927\u5b66\u4e3b\u6821\u533a
p311
sVschool_district
p312
g1
(g2
g3
Ntp313
Rp314
S'U\x01@\xc0w\x8d\x17\x15\xb9B\x0e\xfb'
p315
bsVmobile
p316
V15708421562
p317
sVmin_cost_to_deliver
p318
I0
sVdelivery_price
p319
I100
sVimage_id
p320
g1
(g2
g3
Ntp321
Rp322
S'U\x01@\xacw\x8d\x17\x15\xb9B\r\xfd'
p323
bsVopen_hour
p324
(lp325
I0
aI86400
asVlocation
p326
(lp327
F104.195311
aF30.65545
asVaddress
p328
V\u56db\u5ddd\u7701\u6210\u90fd\u5e02\u9f99\u6cc9\u9a7f\u533a\u6210\u6d1b\u5927\u9053
p329
sVcreated_time
p330
L1426145473570L
sV_id
p331
g305
sVtype
p332
Vcvs
p333
ssg1
(g2
g3
Ntp334
Rp335
S'U\x01@\xc2w\x8d\x17\x15\xb9B\x15\x97'
p336
b(dp337
Vstatus
p338
Vopen
p339
sVname
p340
V\u6c5f\u897f\u5e94\u7528\u6280\u672f\u804c\u4e1a\u5b66\u9662\u9ec4\u91d1\u6821\u533a
p341
sVschool_district
p342
g1
(g2
g3
Ntp343
Rp344
S'U\x01@\xb4w\x8d\x17\x15\xb9B\x0e['
p345
bsVmobile
p346
V18720764736
p347
sVmin_cost_to_deliver
p348
I0
sVdelivery_price
p349
I100
sVimage_id
p350
g1
(g2
g3
Ntp351
Rp352
S'U\x01@\xacw\x8d\x17\x15\xb9B\r\xfd'
p353
bsVopen_hour
p354
(lp355
I0
aI86400
asVlocation
p356
(lp357
F114.893838
aF25.802509
asVaddress
p358
V\u6c5f\u897f\u7701\u8d63\u5dde\u5e02\u7ae0\u8d21\u533ag105
p359
sVcreated_time
p360
L1426145474088L
sV_id
p361
g335
sVtype
p362
Vcvs
p363
ssg1
(g2
g3
Ntp364
Rp365
S'U\x01@\xc2w\x8d\x17\x15\xb9B\x16O'
p366
b(dp367
Vstatus
p368
Vopen
p369
sVname
p370
V\u4e0a\u6d77\u5de5\u7a0b\u6280\u672f\u5927\u5b66\u677e\u6c5f\u6821\u533a
p371
sVschool_district
p372
g1
(g2
g3
Ntp373
Rp374
S'U\x01@\xb6w\x8d\x17\x15\xb9B\x0ey'
p375
bsVmobile
p376
V18317150886
p377
sVmin_cost_to_deliver
p378
I0
sVdelivery_price
p379
I100
sVimage_id
p380
g1
(g2
g3
Ntp381
Rp382
S'U\x01@\xacw\x8d\x17\x15\xb9B\r\xfd'
p383
bsVopen_hour
p384
(lp385
I0
aI86400
asVlocation
p386
(lp387
F121.205183
aF31.056257
asVaddress
p388
V\u4e0a\u6d77\u5e02\u677e\u6c5f\u533a\u6587\u6c47\u8def1028
p389
sVcreated_time
p390
L1426145474152L
sV_id
p391
g365
sVtype
p392
Vcvs
p393
ssg1
(g2
g3
Ntp394
Rp395
S'U\x01@\xc1w\x8d\x17\x15\xb9B\x14w'
p396
b(dp397
Vstatus
p398
Vopen
p399
sVname
p400
V\u6cb3\u5317\u8054\u5408\u5927\u5b66\u5357\u6821\u533a
p401
sVschool_district
p402
g1
(g2
g3
Ntp403
Rp404
S'U\x01@\xb0w\x8d\x17\x15\xb9B\x0e/'
p405
bsVmobile
p406
V18712827267
p407
sVmin_cost_to_deliver
p408
I0
sVdelivery_price
p409
I100
sVimage_id
p410
g1
(g2
g3
Ntp411
Rp412
S'U\x01@\xacw\x8d\x17\x15\xb9B\r\xfd'
p413
bsVopen_hour
p414
(lp415
I0
aI86400
asVlocation
p416
(lp417
F118.161584
aF39.623144
asVaddress
p418
V\u6cb3\u5317\u7701\u5510\u5c71\u5e02\u8def\u5357\u533a\u5357\u65b0\u897f\u905378-6\u53f7
p419
sVcreated_time
p420
L1426145473995L
sV_id
p421
g395
sVtype
p422
Vcvs
p423
ssg1
(g2
g3
Ntp424
Rp425
S'U\x01@\xc2w\x8d\x17\x15\xb9B\x14\xc7'
p426
b(dp427
Vstatus
p428
Vopen
p429
sVname
p430
V\u6cb3\u5357\u519c\u4e1a\u5927\u5b66\u4e3b\u6821\u533a
p431
sVschool_district
p432
g1
(g2
g3
Ntp433
Rp434
S'U\x01@\xb1w\x8d\x17\x15\xb9B\x0e9'
p435
bsVmobile
p436
V18339940118
p437
sVmin_cost_to_deliver
p438
I0
sVdelivery_price
p439
I100
sVimage_id
p440
g1
(g2
g3
Ntp441
Rp442
S'U\x01@\xacw\x8d\x17\x15\xb9B\r\xfd'
p443
bsVopen_hour
p444
(lp445
I0
aI86400
asVlocation
p446
(lp447
F113.662987
aF34.785243
asVaddress
p448
V\u6cb3\u5357\u7701\u90d1\u5dde\u5e02\u91d1\u6c34\u533a\u7ea2\u4e13\u8def3\u53f7\u9662
p449
sVcreated_time
p450
L1426145474019L
sV_id
p451
g425
sVtype
p452
Vcvs
p453
ssg1
(g2
g3
Ntp454
Rp455
S'U\x01@\xc2w\x8d\x17\x15\xb9B\x17\x0f'
p456
b(dp457
Vstatus
p458
Vopen
p459
sVname
p460
V\u6b66\u6c49\u4e1c\u6e56\u5b66\u9662\u4e3b\u6821\u533a
p461
sVschool_district
p462
g1
(g2
g3
Ntp463
Rp464
S'U\x01@\xb8w\x8d\x17\x15\xb9B\x0e\x93'
p465
bsVmobile
p466
V15927419106
p467
sVmin_cost_to_deliver
p468
I0
sVdelivery_price
p469
I100
sVimage_id
p470
g1
(g2
g3
Ntp471
Rp472
S'U\x01@\xacw\x8d\x17\x15\xb9B\r\xfd'
p473
bsVopen_hour
p474
(lp475
I0
aI86400
asVlocation
p476
(lp477
F114.318687
aF30.421977
asVaddress
p478
V\u6e56\u5317\u7701\u6b66\u6c49\u5e02\u6c5f\u590f\u533a\u7ea2\u82b1\u8def
p479
sVcreated_time
p480
L1426145474212L
sV_id
p481
g455
sVtype
p482
Vcvs
p483
ssg1
(g2
g3
Ntp484
Rp485
S"U\x01@\xc1w\x8d\x17\x15\xb9B\x0f'"
p486
b(dp487
Vstatus
p488
Vopen
p489
sVname
p490
V\u6210\u90fd\u7406\u5de5\u5927\u5b66\u4e3b\u6821\u533a
p491
sVschool_district
p492
g1
(g2
g3
Ntp493
Rp494
S'U\x01@\xbfw\x8d\x17\x15\xb9B\x0e\xf8'
p495
bsVmobile
p496
V13981319566
p497
sVmin_cost_to_deliver
p498
I0
sVdelivery_price
p499
I100
sVimage_id
p500
g1
(g2
g3
Ntp501
Rp502
S'U\x01@\xacw\x8d\x17\x15\xb9B\r\xfd'
p503
bsVopen_hour
p504
(lp505
I0
aI86400
asVlocation
p506
(lp507
F104.148494
aF30.677877
asVaddress
p508
V\u56db\u5ddd\u7701\u6210\u90fd\u5e02\u6210\u534e\u533a\u6210\u5357\u9ad8\u901f\u516c\u8def
p509
sVcreated_time
p510
L1426145473564L
sV_id
p511
g485
sVtype
p512
Vcvs
p513
ssg1
(g2
g3
Ntp514
Rp515
S'U\x01@\xc2w\x8d\x17\x15\xb9B\x15\x8f'
p516
b(dp517
Vstatus
p518
Vopen
p519
sVname
p520
V\u6c5f\u897f\u5e08\u8303\u5927\u5b66\u4e3b\u6821\u533a
p521
sVschool_district
p522
g1
(g2
g3
Ntp523
Rp524
S'U\x01@\xb4w\x8d\x17\x15\xb9B\x0eZ'
p525
bsVmobile
p526
V15970676972
p527
sVmin_cost_to_deliver
p528
I0
sVdelivery_price
p529
I100
sVimage_id
p530
g1
(g2
g3
Ntp531
Rp532
S'U\x01@\xacw\x8d\x17\x15\xb9B\r\xfd'
p533
bsVopen_hour
p534
(lp535
I0
aI86400
asVlocation
p536
(lp537
F115.923641
aF28.675429
asVaddress
p538
V\u6c5f\u897f\u7701\u5357\u660c\u5e02\u897f\u6e56\u533a\u5c94\u9053\u53e3\u897f\u8def7\u53f7
p539
sVcreated_time
p540
L1426145474086L
sV_id
p541
g515
sVtype
p542
Vcvs
p543
ssg1
(g2
g3
Ntp544
Rp545
S'U\x01@\xc2w\x8d\x17\x15\xb9B\x16G'
p546
b(dp547
Vstatus
p548
Vopen
p549
sVname
p550
V\u4e0a\u6d77\u8d22\u7ecf\u5927\u5b66\u56fd\u5b9a\u8def\u6821\u533a
p551
sVschool_district
p552
g1
(g2
g3
Ntp553
Rp554
S'U\x01@\xb6w\x8d\x17\x15\xb9B\x0ex'
p555
bsVmobile
p556
V13398912969
p557
sVmin_cost_to_deliver
p558
I0
sVdelivery_price
p559
I100
sVimage_id
p560
g1
(g2
g3
Ntp561
Rp562
S'U\x01@\xacw\x8d\x17\x15\xb9B\r\xfd'
p563
bsVopen_hour
p564
(lp565
I0
aI86400
asVlocation
p566
(lp567
F121.497699
aF31.306419
asVaddress
p568
V\u4e0a\u6d77\u5e02\u6768\u6d66\u533a\u5409\u6d66\u8def99\u53f7
p569
sVcreated_time
p570
L1426145474147L
sV_id
p571
g545
sVtype
p572
Vcvs
p573
ssg1
(g2
g3
Ntp574
Rp575
S'U\x01@\xc1w\x8d\x17\x15\xb9B\x14\x7f'
p576
b(dp577
Vstatus
p578
Vopen
p579
sVname
p580
V\u6cb3\u5317\u8054\u5408\u5927\u5b66\u8f7b\u5de5\u5b66\u9662\u5317\u6821\u533a
p581
sVschool_district
p582
g1
(g2
g3
Ntp583
Rp584
S'U\x01@\xb0w\x8d\x17\x15\xb9B\x0e0'
p585
bsVmobile
p586
V18814811677
p587
sVmin_cost_to_deliver
p588
I0
sVdelivery_price
p589
I100
sVimage_id
p590
g1
(g2
g3
Ntp591
Rp592
S'U\x01@\xacw\x8d\x17\x15\xb9B\r\xfd'
p593
bsVopen_hour
p594
(lp595
I0
aI86400
asVlocation
p596
(lp597
F116.405424
aF39.907448
asVaddress
p598
V\u5317\u4eac\u5e02\u4e1c\u57ce\u533a\u5e7f\u573a\u4e1c\u4fa7\u8def
p599
sVcreated_time
p600
L1426145473998L
sV_id
p601
g575
sVtype
p602
Vcvs
p603
ssg1
(g2
g3
Ntp604
Rp605
S'U\x01@\xc2w\x8d\x17\x15\xb9B\x14\xcf'
p606
b(dp607
Vstatus
p608
Vopen
p609
sVname
p610
V\u6cb3\u5357\u7701\u53f8\u6cd5\u8b66\u5b98\u804c\u4e1a\u5b66\u9662\u8001\u6821\u533a
p611
sVschool_district
p612
g1
(g2
g3
Ntp613
Rp614
S'U\x01@\xb1w\x8d\x17\x15\xb9B\x0e:'
p615
bsVmobile
p616
V18838977808
p617
sVmin_cost_to_deliver
p618
I0
sVdelivery_price
p619
I100
sVimage_id
p620
g1
(g2
g3
Ntp621
Rp622
S'U\x01@\xacw\x8d\x17\x15\xb9B\r\xfd'
p623
bsVopen_hour
p624
(lp625
I0
aI86400
asVlocation
p626
(lp627
F113.660795
aF34.806228
asVaddress
p628
V\u6cb3\u5357\u7701\u90d1\u5dde\u5e02\u91d1\u6c34\u533a\u4e1c\u98ce\u8def2\u53f7
p629
sVcreated_time
p630
L1426145474021L
sV_id
p631
g605
sVtype
p632
Vcvs
p633
ssg1
(g2
g3
Ntp634
Rp635
S'U\x01@\xc2w\x8d\x17\x15\xb9B\x17\x07'
p636
b(dp637
Vstatus
p638
Vopen
p639
sVname
p640
V\u6f4d\u574a\u79d1\u6280\u5b66\u9662\u4e3b\u6821\u533a
p641
sVschool_district
p642
g1
(g2
g3
Ntp643
Rp644
S'U\x01@\xb8w\x8d\x17\x15\xb9B\x0e\x92'
p645
bsVmobile
p646
V18363669032
p647
sVmin_cost_to_deliver
p648
I0
sVdelivery_price
p649
I100
sVimage_id
p650
g1
(g2
g3
Ntp651
Rp652
S'U\x01@\xacw\x8d\x17\x15\xb9B\r\xfd'
p653
bsVopen_hour
p654
(lp655
I0
aI86400
asVlocation
p656
(lp657
F118.775596
aF36.881646
asVaddress
p658
V\u5c71\u4e1c\u7701\u6f4d\u574a\u5e02\u5bff\u5149\u5e02\u5317\u6d77\u8def168\u53f7
p659
sVcreated_time
p660
L1426145474210L
sV_id
p661
g635
sVtype
p662
Vcvs
p663
ssg1
(g2
g3
Ntp664
Rp665
S'U\x01@\xc1w\x8d\x17\x15\xb9B\x0f/'
p666
b(dp667
Vstatus
p668
Vopen
p669
sVname
p670
V\u897f\u5357\u77f3\u6cb9\u5927\u5b66\u4e3b\u6821\u533a
p671
sVschool_district
p672
g1
(g2
g3
Ntp673
Rp674
S'U\x01@\xbfw\x8d\x17\x15\xb9B\x0e\xf9'
p675
bsVmobile
p676
V18382244177
p677
sVmin_cost_to_deliver
p678
I0
sVdelivery_price
p679
I100
sVimage_id
p680
g1
(g2
g3
Ntp681
Rp682
S'U\x01@\xacw\x8d\x17\x15\xb9B\r\xfd'
p683
bsVopen_hour
p684
(lp685
I0
aI86400
asVlocation
p686
(lp687
F106.127336
aF30.83152
asVaddress
p688
V\u56db\u5ddd\u7701\u5357\u5145\u5e02\u987a\u5e86\u533a\u9547\u6c5f\u4e1c\u8def\u4e8c\u6bb5
p689
sVcreated_time
p690
L1426145473566L
sV_id
p691
g665
sVtype
p692
Vcvs
p693
ssg1
(g2
g3
Ntp694
Rp695
S'U\x01@\xc2w\x8d\x17\x15\xb9B\x15\x87'
p696
b(dp697
Vstatus
p698
Vopen
p699
sVname
p700
V\u6c5f\u897f\u519c\u4e1a\u5927\u5b66\u4e3b\u6821\u533a
p701
sVschool_district
p702
g1
(g2
g3
Ntp703
Rp704
S'U\x01@\xb4w\x8d\x17\x15\xb9B\x0eY'
p705
bsVmobile
p706
V18779126476
p707
sVmin_cost_to_deliver
p708
I0
sVdelivery_price
p709
I100
sVimage_id
p710
g1
(g2
g3
Ntp711
Rp712
S'U\x01@\xacw\x8d\x17\x15\xb9B\r\xfd'
p713
bsVopen_hour
p714
(lp715
I0
aI86400
asVlocation
p716
(lp717
F115.834564
aF28.761941
asVaddress
p718
V\u6c5f\u897f\u7701\u5357\u660c\u5e02\u9752\u5c71\u6e56\u533ax014
p719
sVcreated_time
p720
L1426145474083L
sV_id
p721
g695
sVtype
p722
Vcvs
p723
ssg1
(g2
g3
Ntp724
Rp725
S'U\x01@\xc2w\x8d\x17\x15\xb9B\x16\x7f'
p726
b(dp727
Vstatus
p728
Vopen
p729
sVname
p730
V\u6c88\u9633\u57ce\u5e02\u5efa\u8bbe\u5b66\u9662\u4e3b\u6821\u533a
p731
sVschool_district
p732
g1
(g2
g3
Ntp733
Rp734
S'U\x01@\xb6w\x8d\x17\x15\xb9B\x0e\x7f'
p735
bsVmobile
p736
V18309899771
p737
sVmin_cost_to_deliver
p738
I0
sVdelivery_price
p739
I100
sVimage_id
p740
g1
(g2
g3
Ntp741
Rp742
S'U\x01@\xacw\x8d\x17\x15\xb9B\r\xfd'
p743
bsVopen_hour
p744
(lp745
I0
aI86400
asVlocation
p746
(lp747
F123.418918
aF41.677529
asVaddress
p748
V\u8fbd\u5b81\u7701\u6c88\u9633\u5e02\u4e1c\u9675\u533a\u5c0f\u7f8a\u897f\u8def
p749
sVcreated_time
p750
L1426145474172L
sV_id
p751
g725
sVtype
p752
Vcvs
p753
ssg1
(g2
g3
Ntp754
Rp755
S'U\x01@\xc1w\x8d\x17\x15\xb9B\x14G'
p756
b(dp757
Vstatus
p758
Vopen
p759
sVname
p760
V\u5408\u80a5\u5de5\u4e1a\u5927\u5b66\u4e3b\u6821\u533a
p761
sVschool_district
p762
g1
(g2
g3
Ntp763
Rp764
S'U\x01@\xb0w\x8d\x17\x15\xb9B\x0e)'
p765
bsVmobile
p766
V15555452810
p767
sVmin_cost_to_deliver
p768
I0
sVdelivery_price
p769
I100
sVimage_id
p770
g1
(g2
g3
Ntp771
Rp772
S'U\x01@\xacw\x8d\x17\x15\xb9B\r\xfd'
p773
bsVopen_hour
p774
(lp775
I0
aI86400
asVlocation
p776
(lp777
F117.296559
aF31.844226
asVaddress
p778
V\u5b89\u5fbd\u7701\u5408\u80a5\u5e02\u5305\u6cb3\u533a\u4e5d\u534e\u5c71\u8def15\u53f7
p779
sVcreated_time
p780
L1426145473977L
sV_id
p781
g755
sVtype
p782
Vcvs
p783
ssg1
(g2
g3
Ntp784
Rp785
S'U\x01@\xc2w\x8d\x17\x15\xb9B\x14\xf7'
p786
b(dp787
Vstatus
p788
Vopen
p789
sVname
p790
V\u6e56\u5317\u5de5\u4e1a\u5927\u5b66\u5546\u8d38\u5b66\u9662\u4e3b\u6821\u533a
p791
sVschool_district
p792
g1
(g2
g3
Ntp793
Rp794
S'U\x01@\xb1w\x8d\x17\x15\xb9B\x0e?'
p795
bsVmobile
p796
V13627212611
p797
sVmin_cost_to_deliver
p798
I0
sVdelivery_price
p799
I100
sVimage_id
p800
g1
(g2
g3
Ntp801
Rp802
S'U\x01@\xacw\x8d\x17\x15\xb9B\r\xfd'
p803
bsVopen_hour
p804
(lp805
I0
aI86400
asVlocation
p806
(lp807
F114.378275
aF30.50369
asVaddress
p808
V\u6e56\u5317\u7701\u6b66\u6c49\u5e02\u6d2a\u5c71\u533a\u695a\u5eb7\u8def
p809
sVcreated_time
p810
L1426145474037L
sV_id
p811
g785
sVtype
p812
Vcvs
p813
ssg1
(g2
g3
Ntp814
Rp815
S'U\x01@\xc2w\x8d\x17\x15\xb9B\x17?'
p816
b(dp817
Vstatus
p818
Vopen
p819
sVname
p820
V\u6b66\u6c49\u79d1\u6280\u5927\u5b66\u57ce\u5e02\u5b66\u9662\u4e3b\u6821\u533a
p821
sVschool_district
p822
g1
(g2
g3
Ntp823
Rp824
S'U\x01@\xb8w\x8d\x17\x15\xb9B\x0e\x99'
p825
bsVmobile
p826
V18271423513
p827
sVmin_cost_to_deliver
p828
I0
sVdelivery_price
p829
I100
sVimage_id
p830
g1
(g2
g3
Ntp831
Rp832
S'U\x01@\xacw\x8d\x17\x15\xb9B\r\xfd'
p833
bsVopen_hour
p834
(lp835
I0
aI86400
asVlocation
p836
(lp837
F114.425869
aF30.587386
asVaddress
p838
V\u6e56\u5317\u7701\u6b66\u6c49\u5e02\u6d2a\u5c71\u533a\u96c1\u4e2d\u8def
p839
sVcreated_time
p840
L1426145474226L
sV_id
p841
g815
sVtype
p842
Vcvs
p843
ssg1
(g2
g3
Ntp844
Rp845
S'U\x01@\xc1w\x8d\x17\x15\xb9B\x0f\x17'
p846
b(dp847
Vstatus
p848
Vopen
p849
sVname
p850
V\u5e7f\u4e1c\u8d22\u7ecf\u5927\u5b66\u6d77\u73e0\u6821\u533a\u672c\u90e8
p851
sVschool_district
p852
g1
(g2
g3
Ntp853
Rp854
S'U\x01@\xbfw\x8d\x17\x15\xb9B\x0e\xf5'
p855
bsVmobile
p856
V13247340083
p857
sVmin_cost_to_deliver
p858
I0
sVdelivery_price
p859
I100
sVimage_id
p860
g1
(g2
g3
Ntp861
Rp862
S'U\x01@\xacw\x8d\x17\x15\xb9B\r\xfd'
p863
bsVopen_hour
p864
(lp865
I0
aI86400
asVlocation
p866
(lp867
F113.361258
aF23.092359
asVaddress
p868
V\u5e7f\u4e1c\u7701\u5e7f\u5dde\u5e02\u6d77\u73e0\u533a\u8d64\u6c99\u8def21\u53f7
p869
sVcreated_time
p870
L1426145473559L
sV_id
p871
g845
sVtype
p872
Vcvs
p873
ssg1
(g2
g3
Ntp874
Rp875
S'U\x01@\xc2w\x8d\x17\x15\xb9B\x15\xbf'
p876
b(dp877
Vstatus
p878
Vopen
p879
sVname
p880
V\u4e3d\u6c5f\u5e08\u8303\u9ad8\u7b49\u4e13\u79d1\u5b66\u6821\u4e3b\u6821\u533a
p881
sVschool_district
p882
g1
(g2
g3
Ntp883
Rp884
S'U\x01@\xb4w\x8d\x17\x15\xb9B\x0ea'
p885
bsVmobile
p886
V18869044245
p887
sVmin_cost_to_deliver
p888
I0
sVdelivery_price
p889
I100
sVimage_id
p890
g1
(g2
g3
Ntp891
Rp892
S'U\x01@\xacw\x8d\x17\x15\xb9B\r\xfd'
p893
bsVopen_hour
p894
(lp895
I0
aI86400
asVlocation
p896
(lp897
F100.282629
aF26.885906
asVaddress
p898
V\u4e91\u5357\u7701\u4e3d\u6c5f\u5e02\u53e4\u57ce\u533as308
p899
sVcreated_time
p900
L1426145474102L
sV_id
p901
g875
sVtype
p902
Vcvs
p903
ssg1
(g2
g3
Ntp904
Rp905
S'U\x01@\xc2w\x8d\x17\x15\xb9B\x16w'
p906
b(dp907
Vstatus
p908
Vopen
p909
sVname
p910
V\u4e0a\u9976\u5e08\u8303\u5b66\u9662\u4e3b\u6821\u533a
p911
sVschool_district
p912
g1
(g2
g3
Ntp913
Rp914
S'U\x01@\xb6w\x8d\x17\x15\xb9B\x0e~'
p915
bsVmobile
p916
V15180320013
p917
sVmin_cost_to_deliver
p918
I0
sVdelivery_price
p919
I100
sVimage_id
p920
g1
(g2
g3
Ntp921
Rp922
S'U\x01@\xacw\x8d\x17\x15\xb9B\r\xfd'
p923
bsVopen_hour
p924
(lp925
I0
aI86400
asVlocation
p926
(lp927
F117.970718
aF28.415484
asVaddress
p928
V\u6c5f\u897f\u7701\u4e0a\u9976\u5e02\u4fe1\u5dde\u533a\u53f6\u633a\u5927\u9053
p929
sVcreated_time
p930
L1426145474170L
sV_id
p931
g905
sVtype
p932
Vcvs
p933
ssg1
(g2
g3
Ntp934
Rp935
S'U\x01@\xc1w\x8d\x17\x15\xb9B\x14O'
p936
b(dp937
Vstatus
p938
Vopen
p939
sVname
p940
V\u6cb3\u5317\u5317\u65b9\u5b66\u9662\u897f\u6821\u533a
p941
sVschool_district
p942
g1
(g2
g3
Ntp943
Rp944
S'U\x01@\xb0w\x8d\x17\x15\xb9B\x0e*'
p945
bsVmobile
p946
V15369306568
p947
sVmin_cost_to_deliver
p948
I0
sVdelivery_price
p949
I100
sVimage_id
p950
g1
(g2
g3
Ntp951
Rp952
S'U\x01@\xacw\x8d\x17\x15\xb9B\r\xfd'
p953
bsVopen_hour
p954
(lp955
I0
aI86400
asVlocation
p956
(lp957
F114.881457
aF40.771832
asVaddress
p958
V\u6cb3\u5317\u7701\u5f20\u5bb6\u53e3\u5e02\u6865\u4e1c\u533a\u6ee8\u6cb3\u5357\u8def
p959
sVcreated_time
p960
L1426145473980L
sV_id
p961
g935
sVtype
p962
Vcvs
p963
ssg1
(g2
g3
Ntp964
Rp965
S'U\x01@\xc2w\x8d\x17\x15\xb9B\x14\xff'
p966
b(dp967
Vstatus
p968
Vopen
p969
sVname
p970
V\u6e56\u5317\u7ecf\u6d4e\u5b66\u9662\u4e3b\u6821\u533a
p971
sVschool_district
p972
g1
(g2
g3
Ntp973
Rp974
S'U\x01@\xb1w\x8d\x17\x15\xb9B\x0e@'
p975
bsVmobile
p976
V15871016954
p977
sVmin_cost_to_deliver
p978
I0
sVdelivery_price
p979
I100
sVimage_id
p980
g1
(g2
g3
Ntp981
Rp982
S'U\x01@\xacw\x8d\x17\x15\xb9B\r\xfd'
p983
bsVopen_hour
p984
(lp985
I0
aI86400
asVlocation
p986
(lp987
F114.43684
aF30.419183
asVaddress
p988
V\u6e56\u5317\u7701\u6b66\u6c49\u5e02\u6c5f\u590f\u533a\u85cf\u9f99\u5927\u9053
p989
sVcreated_time
p990
L1426145474039L
sV_id
p991
g965
sVtype
p992
Vcvs
p993
ssg1
(g2
g3
Ntp994
Rp995
S'U\x01@\xc2w\x8d\x17\x15\xb9B\x177'
p996
b(dp997
Vstatus
p998
Vopen
p999
sVname
p1000
V\u6b66\u6c49\u79d1\u6280\u5927\u5b66\u57ce\u5e02\u5b66\u9662\u6d2a\u5c71\u6821\u533a
p1001
sVschool_district
p1002
g1
(g2
g3
Ntp1003
Rp1004
S'U\x01@\xb8w\x8d\x17\x15\xb9B\x0e\x98'
p1005
bsVmobile
p1006
V18271423513
p1007
sVmin_cost_to_deliver
p1008
I0
sVdelivery_price
p1009
I100
sVimage_id
p1010
g1
(g2
g3
Ntp1011
Rp1012
S'U\x01@\xacw\x8d\x17\x15\xb9B\r\xfd'
p1013
bsVopen_hour
p1014
(lp1015
I0
aI86400
asVlocation
p1016
(lp1017
F114.426362
aF30.585927
asVaddress
p1018
V\u6e56\u5317\u7701\u6b66\u6c49\u5e02\u6d2a\u5c71\u533a\u843d\u96c1\u8def
p1019
sVcreated_time
p1020
L1426145474224L
sV_id
p1021
g995
sVtype
p1022
Vcvs
p1023
ssg1
(g2
g3
Ntp1024
Rp1025
S'U\x01@\xc1w\x8d\x17\x15\xb9B\x0f\x1f'
p1026
b(dp1027
Vstatus
p1028
Vopen
p1029
sVname
p1030
V\u4fdd\u5c71\u5b66\u9662\u4e3b\u6821\u533a
p1031
sVschool_district
p1032
g1
(g2
g3
Ntp1033
Rp1034
S'U\x01@\xbfw\x8d\x17\x15\xb9B\x0e\xf7'
p1035
bsVmobile
p1036
V15987507040
p1037
sVmin_cost_to_deliver
p1038
I0
sVdelivery_price
p1039
I100
sVimage_id
p1040
g1
(g2
g3
Ntp1041
Rp1042
S'U\x01@\xacw\x8d\x17\x15\xb9B\r\xfd'
p1043
bsVopen_hour
p1044
(lp1045
I0
aI86400
asVlocation
p1046
(lp1047
F99.16854
aF25.140233
asVaddress
p1048
V\u4e91\u5357\u7701\u4fdd\u5c71\u5e02\u9686\u9633\u533a\u592a\u4fdd\u5317\u8def
p1049
sVcreated_time
p1050
L1426145473561L
sV_id
p1051
g1025
sVtype
p1052
Vcvs
p1053
ssg1
(g2
g3
Ntp1054
Rp1055
S'U\x01@\xc2w\x8d\x17\x15\xb9B\x15\xb7'
p1056
b(dp1057
Vstatus
p1058
Vopen
p1059
sVname
p1060
V\u6606\u660e\u7406\u5de5\u5927\u5b66\u5448\u8d21\u6821\u533a
p1061
sVschool_district
p1062
g1
(g2
g3
Ntp1063
Rp1064
S'U\x01@\xb4w\x8d\x17\x15\xb9B\x0e_'
p1065
bsVmobile
p1066
V18487186734
p1067
sVmin_cost_to_deliver
p1068
I0
sVdelivery_price
p1069
I100
sVimage_id
p1070
g1
(g2
g3
Ntp1071
Rp1072
S'U\x01@\xacw\x8d\x17\x15\xb9B\r\xfd'
p1073
bsVopen_hour
p1074
(lp1075
F0.0
aF86400.0
asVlocation
p1076
(lp1077
F116.493138
aF39.911997
asVaddress
p1078
V\u4e91\u5357\u7701\u6606\u660e\u5e02\u5448\u8d21\u533a\u666f\u660e\u5357\u8def
p1079
sVcreated_time
p1080
L1426145474098L
sV_id
p1081
g1055
sVtype
p1082
Vcvs
p1083
ssg1
(g2
g3
Ntp1084
Rp1085
S'U\x01@\xc2w\x8d\x17\x15\xb9B\x16o'
p1086
b(dp1087
Vstatus
p1088
Vopen
p1089
sVname
p1090
V\u4e0a\u6d77\u5546\u5b66\u9662\u4e3b\u6821\u533a
p1091
sVschool_district
p1092
g1
(g2
g3
Ntp1093
Rp1094
S'U\x01@\xb6w\x8d\x17\x15\xb9B\x0e}'
p1095
bsVmobile
p1096
V13774458930
p1097
sVmin_cost_to_deliver
p1098
I0
sVdelivery_price
p1099
I100
sVimage_id
p1100
g1
(g2
g3
Ntp1101
Rp1102
S'U\x01@\xacw\x8d\x17\x15\xb9B\r\xfd'
p1103
bsVopen_hour
p1104
(lp1105
I0
aI86400
asVlocation
p1106
(lp1107
F121.429362
aF31.182399
asVaddress
p1108
V\u4e0a\u6d77\u5e02\u5f90\u6c47\u533a\u5b9c\u5c71\u8def713\u53f7
p1109
sVcreated_time
p1110
L1426145474167L
sV_id
p1111
g1085
sVtype
p1112
Vcvs
p1113
ssg1
(g2
g3
Ntp1114
Rp1115
S'U\x01@\xc1w\x8d\x17\x15\xb9B\x14W'
p1116
b(dp1117
Vstatus
p1118
Vopen
p1119
sVname
p1120
V\u6cb3\u5317\u5de5\u4e1a\u5927\u5b66\u5317\u8fb0\u6821\u533a
p1121
sVschool_district
p1122
g1
(g2
g3
Ntp1123
Rp1124
S'U\x01@\xb0w\x8d\x17\x15\xb9B\x0e+'
p1125
bsVmobile
p1126
V13920597076
p1127
sVmin_cost_to_deliver
p1128
I0
sVdelivery_price
p1129
I100
sVimage_id
p1130
g1
(g2
g3
Ntp1131
Rp1132
S'U\x01@\xacw\x8d\x17\x15\xb9B\r\xfd'
p1133
bsVopen_hour
p1134
(lp1135
I0
aI86400
asVlocation
p1136
(lp1137
F117.058166
aF39.237605
asVaddress
p1138
V\u5929\u6d25\u5e02\u5317\u8fb0\u533as112
p1139
sVcreated_time
p1140
L1426145473982L
sV_id
p1141
g1115
sVtype
p1142
Vcvs
p1143
ssg1
(g2
g3
Ntp1144
Rp1145
S'U\x01@\xc2w\x8d\x17\x15\xb9B\x14\xe7'
p1146
b(dp1147
Vstatus
p1148
Vopen
p1149
sVname
p1150
V\u6e56\u5317\u5927\u5b66\u9633\u903b\u6821\u533a
p1151
sVschool_district
p1152
g1
(g2
g3
Ntp1153
Rp1154
S'U\x01@\xb1w\x8d\x17\x15\xb9B\x0e='
p1155
bsVmobile
p1156
V18063503145
p1157
sVmin_cost_to_deliver
p1158
I0
sVdelivery_price
p1159
I100
sVimage_id
p1160
g1
(g2
g3
Ntp1161
Rp1162
S'U\x01@\xacw\x8d\x17\x15\xb9B\r\xfd'
p1163
bsVopen_hour
p1164
(lp1165
I0
aI86400
asVlocation
p1166
(lp1167
F114.585471
aF30.646628
asVaddress
p1168
V\u6e56\u5317\u7701\u6b66\u6c49\u5e02\u65b0\u6d32\u533a\u6b66\u6c49\u7ed5\u57ce\u9ad8\u901f\u516c\u8def
p1169
sVcreated_time
p1170
L1426145474028L
sV_id
p1171
g1145
sVtype
p1172
Vcvs
p1173
ssg1
(g2
g3
Ntp1174
Rp1175
S'U\x01@\xc2w\x8d\x17\x15\xb9B\x17/'
p1176
b(dp1177
Vstatus
p1178
Vopen
p1179
sVname
p1180
V\u6b66\u6c49\u79d1\u6280\u5927\u5b66\u9ec4\u5bb6\u6e56\u6821\u533a
p1181
sVschool_district
p1182
g1
(g2
g3
Ntp1183
Rp1184
S'U\x01@\xb8w\x8d\x17\x15\xb9B\x0e\x97'
p1185
bsVmobile
p1186
V15671683947
p1187
sVmin_cost_to_deliver
p1188
I0
sVdelivery_price
p1189
I100
sVimage_id
p1190
g1
(g2
g3
Ntp1191
Rp1192
S'U\x01@\xacw\x8d\x17\x15\xb9B\r\xfd'
p1193
bsVopen_hour
p1194
(lp1195
I0
aI86400
asVlocation
p1196
(lp1197
F114.266953
aF30.439572
asVaddress
p1198
V\u6e56\u5317\u7701\u6b66\u6c49\u5e02\u6d2a\u5c71\u533ag107
p1199
sVcreated_time
p1200
L1426145474222L
sV_id
p1201
g1175
sVtype
p1202
Vcvs
p1203
ssg1
(g2
g3
Ntp1204
Rp1205
S'U\x01@\xc2w\x8d\x17\x15\xb9B\x15\xaf'
p1206
b(dp1207
Vstatus
p1208
Vopen
p1209
sVname
p1210
V\u4e5d\u6c5f\u5b66\u9662\u4e3b\u6821\u533a
p1211
sVschool_district
p1212
g1
(g2
g3
Ntp1213
Rp1214
S'U\x01@\xb4w\x8d\x17\x15\xb9B\x0e^'
p1215
bsVmobile
p1216
V15270244377
p1217
sVmin_cost_to_deliver
p1218
I0
sVdelivery_price
p1219
I100
sVimage_id
p1220
g1
(g2
g3
Ntp1221
Rp1222
S'U\x01@\xacw\x8d\x17\x15\xb9B\r\xfd'
p1223
bsVopen_hour
p1224
(lp1225
I0
aI86400
asVlocation
p1226
(lp1227
F116.012695
aF29.679995
asVaddress
p1228
V\u6c5f\u897f\u7701\u4e5d\u6c5f\u5e02\u5e90\u5c71\u533a\u524d\u8fdb\u4e1c\u8def551\u53f7
p1229
sVcreated_time
p1230
L1426145474095L
sV_id
p1231
g1205
sVtype
p1232
Vcvs
p1233
ssg1
(g2
g3
Ntp1234
Rp1235
S'U\x01@\xc2w\x8d\x17\x15\xb9B\x16g'
p1236
b(dp1237
Vstatus
p1238
Vopen
p1239
sVname
p1240
V\u4e0a\u6d77\u6749\u8fbe\u5b66\u9662 \u4e3b\u6821\u533a
p1241
sVschool_district
p1242
g1
(g2
g3
Ntp1243
Rp1244
S'U\x01@\xb6w\x8d\x17\x15\xb9B\x0e|'
p1245
bsVmobile
p1246
V15599118570
p1247
sVmin_cost_to_deliver
p1248
I0
sVdelivery_price
p1249
I100
sVimage_id
p1250
g1
(g2
g3
Ntp1251
Rp1252
S'U\x01@\xacw\x8d\x17\x15\xb9B\r\xfd'
p1253
bsVopen_hour
p1254
(lp1255
I0
aI86400
asVlocation
p1256
(lp1257
F121.658519
aF31.268446
asVaddress
p1258
V\u4e0a\u6d77\u5e02\u6d66\u4e1c\u65b0\u533a\u91d1\u6d77\u8def
p1259
sVcreated_time
p1260
L1426145474165L
sV_id
p1261
g1235
sVtype
p1262
Vcvs
p1263
ssg1
(g2
g3
Ntp1264
Rp1265
S'U\x01@\xc1w\x8d\x17\x15\xb9B\x14_'
p1266
b(dp1267
Vstatus
p1268
Vopen
p1269
sVname
p1270
V\u6cb3\u5317\u79d1\u6280\u5927\u5b66\u7406\u5de5\u5b66\u9662\u4e2d\u6821\u533a
p1271
sVschool_district
p1272
g1
(g2
g3
Ntp1273
Rp1274
S'U\x01@\xb0w\x8d\x17\x15\xb9B\x0e,'
p1275
bsVmobile
p1276
V15227862283
p1277
sVmin_cost_to_deliver
p1278
I0
sVdelivery_price
p1279
I100
sVimage_id
p1280
g1
(g2
g3
Ntp1281
Rp1282
S'U\x01@\xacw\x8d\x17\x15\xb9B\r\xfd'
p1283
bsVopen_hour
p1284
(lp1285
I0
aI86400
asVlocation
p1286
(lp1287
F114.514885
aF38.033583
asVaddress
p1288
V\u6cb3\u5317\u7701\u77f3\u5bb6\u5e84\u5e02\u6865\u4e1c\u533a\u69d0\u4e2d\u8def108\u53f7
p1289
sVcreated_time
p1290
L1426145473985L
sV_id
p1291
g1265
sVtype
p1292
Vcvs
p1293
ssg1
(g2
g3
Ntp1294
Rp1295
S'U\x01@\xc2w\x8d\x17\x15\xb9B\x14\xef'
p1296
b(dp1297
Vstatus
p1298
Vopen
p1299
sVname
p1300
V\u6e56\u5317\u7b2c\u4e8c\u5e08\u8303\u5b66\u9662\u6c5f\u590f\u6821\u533a
p1301
sVschool_district
p1302
g1
(g2
g3
Ntp1303
Rp1304
S'U\x01@\xb1w\x8d\x17\x15\xb9B\x0e>'
p1305
bsVmobile
p1306
V13995902907
p1307
sVmin_cost_to_deliver
p1308
I0
sVdelivery_price
p1309
I100
sVimage_id
p1310
g1
(g2
g3
Ntp1311
Rp1312
S'U\x01@\xacw\x8d\x17\x15\xb9B\r\xfd'
p1313
bsVopen_hour
p1314
(lp1315
I0
aI86400
asVlocation
p1316
(lp1317
F114.447851
aF30.480828
asVaddress
p1318
V\u6e56\u5317\u7701\u6b66\u6c49\u5e02\u6c5f\u590f\u533a\u9ad8\u65b0\u4e8c\u8def
p1319
sVcreated_time
p1320
L1426145474031L
sV_id
p1321
g1295
sVtype
p1322
Vcvs
p1323
ssg1
(g2
g3
Ntp1324
Rp1325
S"U\x01@\xc2w\x8d\x17\x15\xb9B\x17'"
p1326
b(dp1327
Vstatus
p1328
Vopen
p1329
sVname
p1330
V\u6b66\u6c49\u5de5\u4e1a\u804c\u4e1a\u6280\u672f\u5b66\u9662\u4e3b\u6821\u533a
p1331
sVschool_district
p1332
g1
(g2
g3
Ntp1333
Rp1334
S'U\x01@\xb8w\x8d\x17\x15\xb9B\x0e\x96'
p1335
bsVmobile
p1336
V18154328977
p1337
sVmin_cost_to_deliver
p1338
I0
sVdelivery_price
p1339
I100
sVimage_id
p1340
g1
(g2
g3
Ntp1341
Rp1342
S'U\x01@\xacw\x8d\x17\x15\xb9B\r\xfd'
p1343
bsVopen_hour
p1344
(lp1345
I0
aI86400
asVlocation
p1346
(lp1347
F114.309483
aF30.441986
asVaddress
p1348
V\u6e56\u5317\u7701\u6b66\u6c49\u5e02\u6c5f\u590f\u533as113
p1349
sVcreated_time
p1350
L1426145474219L
sV_id
p1351
g1325
sVtype
p1352
Vcvs
p1353
ssg1
(g2
g3
Ntp1354
Rp1355
S'U\x01@\xc1w\x8d\x17\x15\xb9B\x0f\x0f'
p1356
b(dp1357
Vstatus
p1358
Vopen
p1359
sVname
p1360
V\u5409\u9996\u5927\u5b66\u77f3\u5bb6\u51b2\u6821\u533a
p1361
sVschool_district
p1362
g1
(g2
g3
Ntp1363
Rp1364
S'U\x01@\xbew\x8d\x17\x15\xb9B\x0e\xeb'
p1365
bsVmobile
p1366
V13141617142
p1367
sVmin_cost_to_deliver
p1368
I0
sVdelivery_price
p1369
I100
sVimage_id
p1370
g1
(g2
g3
Ntp1371
Rp1372
S'U\x01@\xacw\x8d\x17\x15\xb9B\r\xfd'
p1373
bsVopen_hour
p1374
(lp1375
I0
aI86400
asVlocation
p1376
(lp1377
F109.733884
aF28.315824
asVaddress
p1378
V\u6e56\u5357\u7701\u6e58\u897f\u571f\u5bb6\u65cf\u82d7\u65cf\u81ea\u6cbb\u5dde\u5409\u9996\u5e02g209
p1379
sVcreated_time
p1380
L1426145473557L
sV_id
p1381
g1355
sVtype
p1382
Vcvs
p1383
ssg1
(g2
g3
Ntp1384
Rp1385
S'U\x01@\xc2w\x8d\x17\x15\xb9B\x15\xa7'
p1386
b(dp1387
Vstatus
p1388
Vopen
p1389
sVname
p1390
V\u664b\u4e2d\u5b66\u9662\u65b0\u6821\u533a
p1391
sVschool_district
p1392
g1
(g2
g3
Ntp1393
Rp1394
S'U\x01@\xb4w\x8d\x17\x15\xb9B\x0e]'
p1395
bsVmobile
p1396
V18734428582
p1397
sVmin_cost_to_deliver
p1398
I0
sVdelivery_price
p1399
I100
sVimage_id
p1400
g1
(g2
g3
Ntp1401
Rp1402
S'U\x01@\xacw\x8d\x17\x15\xb9B\r\xfd'
p1403
bsVopen_hour
p1404
(lp1405
I0
aI86400
asVlocation
p1406
(lp1407
F112.744595
aF37.710663
asVaddress
p1408
V\u5c71\u897f\u7701\u664b\u4e2d\u5e02\u6986\u6b21\u533a\u5b89\u5b81\u5927\u8857327
p1409
sVcreated_time
p1410
L1426145474093L
sV_id
p1411
g1385
sVtype
p1412
Vcvs
p1413
ssg1
(g2
g3
Ntp1414
Rp1415
S'U\x01@\xc2w\x8d\x17\x15\xb9B\x16\x1f'
p1416
b(dp1417
Vstatus
p1418
Vopen
p1419
sVname
p1420
V\u5c71\u897f\u5927\u5b66\u5546\u52a1\u5b66\u9662 \u4e3b\u6821\u533a
p1421
sVschool_district
p1422
g1
(g2
g3
Ntp1423
Rp1424
S'U\x01@\xb5w\x8d\x17\x15\xb9B\x0er'
p1425
bsVmobile
p1426
V18635724179
p1427
sVmin_cost_to_deliver
p1428
I0
sVdelivery_price
p1429
I100
sVimage_id
p1430
g1
(g2
g3
Ntp1431
Rp1432
S'U\x01@\xacw\x8d\x17\x15\xb9B\r\xfd'
p1433
bsVopen_hour
p1434
(lp1435
I0
aI86400
asVlocation
p1436
(lp1437
F112.663379
aF37.741637
asVaddress
p1438
V\u5c71\u897f\u7701\u592a\u539f\u5e02\u5c0f\u5e97\u533a\u6b66\u5e9e\u7ebf
p1439
sVcreated_time
p1440
L1426145474130L
sV_id
p1441
g1415
sVtype
p1442
Vcvs
p1443
ssg1
(g2
g3
Ntp1444
Rp1445
S"U\x01@\xc1w\x8d\x17\x15\xb9B\x14'"
p1446
b(dp1447
Vstatus
p1448
Vopen
p1449
sVname
p1450
V\u6842\u6797\u822a\u5929\u5de5\u4e1a\u5b66\u9662\u4e3b\u6821\u533a
p1451
sVschool_district
p1452
g1
(g2
g3
Ntp1453
Rp1454
S'U\x01@\xafw\x8d\x17\x15\xb9B\x0e%'
p1455
bsVmobile
p1456
V18290027282
p1457
sVmin_cost_to_deliver
p1458
I0
sVdelivery_price
p1459
I100
sVimage_id
p1460
g1
(g2
g3
Ntp1461
Rp1462
S'U\x01@\xacw\x8d\x17\x15\xb9B\r\xfd'
p1463
bsVopen_hour
p1464
(lp1465
I0
aI86400
asVlocation
p1466
(lp1467
F110.371453
aF25.283322
asVaddress
p1468
V\u5e7f\u897f\u58ee\u65cf\u81ea\u6cbb\u533a\u6842\u6797\u5e02\u4e03\u661f\u533a
p1469
sVcreated_time
p1470
L1426145473968L
sV_id
p1471
g1445
sVtype
p1472
Vcvs
p1473
ssg1
(g2
g3
Ntp1474
Rp1475
S'U\x01@\xc2w\x8d\x17\x15\xb9B\x14\x97'
p1476
b(dp1477
Vstatus
p1478
Vopen
p1479
sVname
p1480
V\u6cb3\u5357\u8d22\u7ecf\u653f\u6cd5\u5927\u5b66\u8001\u6821\u533a
p1481
sVschool_district
p1482
g1
(g2
g3
Ntp1483
Rp1484
S'U\x01@\xb0w\x8d\x17\x15\xb9B\x0e3'
p1485
bsVmobile
p1486
V13383968809
p1487
sVmin_cost_to_deliver
p1488
I0
sVdelivery_price
p1489
I100
sVimage_id
p1490
g1
(g2
g3
Ntp1491
Rp1492
S'U\x01@\xacw\x8d\x17\x15\xb9B\r\xfd'
p1493
bsVopen_hour
p1494
(lp1495
I0
aI86400
asVlocation
p1496
(lp1497
F113.812973
aF34.780492
asVaddress
p1498
V\u6cb3\u5357\u7701\u90d1\u5dde\u5e02\u91d1\u6c34\u533a\u91d1\u6c34\u4e1c\u8def
p1499
sVcreated_time
p1500
L1426145474005L
sV_id
p1501
g1475
sVtype
p1502
Vcvs
p1503
ssg1
(g2
g3
Ntp1504
Rp1505
S'U\x01@\xc2w\x8d\x17\x15\xb9B\x17_'
p1506
b(dp1507
Vstatus
p1508
Vopen
p1509
sVname
p1510
V\u6b66\u5937\u5b66\u9662\u4e3b\u6821\u533a
p1511
sVschool_district
p1512
g1
(g2
g3
Ntp1513
Rp1514
S'U\x01@\xb9w\x8d\x17\x15\xb9B\x0e\x9d'
p1515
bsVmobile
p1516
V18094150894
p1517
sVmin_cost_to_deliver
p1518
I0
sVdelivery_price
p1519
I100
sVimage_id
p1520
g1
(g2
g3
Ntp1521
Rp1522
S'U\x01@\xacw\x8d\x17\x15\xb9B\r\xfd'
p1523
bsVopen_hour
p1524
(lp1525
I0
aI86400
asVlocation
p1526
(lp1527
F118.004235
aF27.728666
asVaddress
p1528
V\u798f\u5efa\u7701\u5357\u5e73\u5e02\u6b66\u5937\u5c71\u5e02s303
p1529
sVcreated_time
p1530
L1426145474235L
sV_id
p1531
g1505
sVtype
p1532
Vcvs
p1533
ssg1
(g2
g3
Ntp1534
Rp1535
S'U\x01@\xc1w\x8d\x17\x15\xb9B\x0fw'
p1536
b(dp1537
Vstatus
p1538
Vopen
p1539
sVname
p1540
V\u4e91\u5357\u5e08\u8303\u5927\u5b66\u6587\u7406\u5b66\u9662\u4e3b\u6821\u533a
p1541
sVschool_district
p1542
g1
(g2
g3
Ntp1543
Rp1544
S'U\x01@\xc0w\x8d\x17\x15\xb9B\x0f\x02'
p1545
bsVmobile
p1546
V15096627075
p1547
sVmin_cost_to_deliver
p1548
I0
sVdelivery_price
p1549
I100
sVimage_id
p1550
g1
(g2
g3
Ntp1551
Rp1552
S'U\x01@\xacw\x8d\x17\x15\xb9B\r\xfd'
p1553
bsVopen_hour
p1554
(lp1555
I0
aI86400
asVlocation
p1556
(lp1557
F103.003219
aF25.251045
asVaddress
p1558
V\u4e91\u5357\u7701\u6606\u660e\u5e02\u5d69\u660e\u53bf\u5b98\u519b\u8def
p1559
sVcreated_time
p1560
L1426145473586L
sV_id
p1561
g1535
sVtype
p1562
Vcvs
p1563
ssg1
(g2
g3
Ntp1564
Rp1565
S'U\x01@\xc2w\x8d\x17\x15\xb9B\x15\xdf'
p1566
b(dp1567
Vstatus
p1568
Vopen
p1569
sVname
p1570
V\u5357\u4eac\u5de5\u4e1a\u5927\u5b66\u6d66\u53e3\u6821\u533a
p1571
sVschool_district
p1572
g1
(g2
g3
Ntp1573
Rp1574
S'U\x01@\xb4w\x8d\x17\x15\xb9B\x0ee'
p1575
bsVmobile
p1576
V15720601060
p1577
sVmin_cost_to_deliver
p1578
I0
sVdelivery_price
p1579
I100
sVimage_id
p1580
g1
(g2
g3
Ntp1581
Rp1582
S'U\x01@\xacw\x8d\x17\x15\xb9B\r\xfd'
p1583
bsVopen_hour
p1584
(lp1585
I0
aI86400
asVlocation
p1586
(lp1587
F118.641243
aF32.074895
asVaddress
p1588
V\u6c5f\u82cf\u7701\u5357\u4eac\u5e02\u6d66\u53e3\u533a\u9f99\u534e\u8def
p1589
sVcreated_time
p1590
L1426145474112L
sV_id
p1591
g1565
sVtype
p1592
Vcvs
p1593
ssg1
(g2
g3
Ntp1594
Rp1595
S'U\x01@\xc2w\x8d\x17\x15\xb9B\x16\x17'
p1596
b(dp1597
Vstatus
p1598
Vopen
p1599
sVname
p1600
V\u5c71\u897f\u5927\u5b66\u5927\u4e1c\u5173\u6821\u533a
p1601
sVschool_district
p1602
g1
(g2
g3
Ntp1603
Rp1604
S'U\x01@\xb5w\x8d\x17\x15\xb9B\x0eq'
p1605
bsVmobile
p1606
V18334793686
p1607
sVmin_cost_to_deliver
p1608
I0
sVdelivery_price
p1609
I100
sVimage_id
p1610
g1
(g2
g3
Ntp1611
Rp1612
S'U\x01@\xacw\x8d\x17\x15\xb9B\r\xfd'
p1613
bsVopen_hour
p1614
(lp1615
I0
aI86400
asVlocation
p1616
(lp1617
F112.586764
aF37.803914
asVaddress
p1618
V\u5c71\u897f\u7701\u592a\u539f\u5e02\u5c0f\u5e97\u533a\u8bb8\u5766\u897f\u8857
p1619
sVcreated_time
p1620
L1426145474127L
sV_id
p1621
g1595
sVtype
p1622
Vcvs
p1623
ssg1
(g2
g3
Ntp1624
Rp1625
S'U\x01@\xc1w\x8d\x17\x15\xb9B\x12\xaf'
p1626
b(dp1627
Vstatus
p1628
Vopen
p1629
sVname
p1630
V\u4e2d\u56fd\u5730\u8d28\u5927\u5b66\u4e3b\u6821\u533a
p1631
sVschool_district
p1632
g1
(g2
g3
Ntp1633
Rp1634
S'U\x01@\xbfw\x8d\x17\x15\xb9B\x0e\xed'
p1635
bsVmobile
p1636
V13437274396
p1637
sVmin_cost_to_deliver
p1638
I0
sVdelivery_price
p1639
I100
sVimage_id
p1640
g1
(g2
g3
Ntp1641
Rp1642
S'U\x01@\xacw\x8d\x17\x15\xb9B\r\xfd'
p1643
bsVopen_hour
p1644
(lp1645
I0
aI86400
asVlocation
p1646
(lp1647
F116.349445
aF39.990218
asVaddress
p1648
V\u5317\u4eac\u5e02\u6d77\u6dc0\u533a\u5b66\u9662\u8def37\u53f7\u9662-211\u53f7\u697c
p1649
sVcreated_time
p1650
L1426145473844L
sV_id
p1651
g1625
sVtype
p1652
Vcvs
p1653
ssg1
(g2
g3
Ntp1654
Rp1655
S'U\x01@\xc2w\x8d\x17\x15\xb9B\x14\x9f'
p1656
b(dp1657
Vstatus
p1658
Vopen
p1659
sVname
p1660
V\u6cb3\u5357\u8d22\u7ecf\u653f\u6cd5\u5927\u5b66\u65b0\u6821\u533a
p1661
sVschool_district
p1662
g1
(g2
g3
Ntp1663
Rp1664
S'U\x01@\xb1w\x8d\x17\x15\xb9B\x0e4'
p1665
bsVmobile
p1666
V15838224498
p1667
sVmin_cost_to_deliver
p1668
I0
sVdelivery_price
p1669
I100
sVimage_id
p1670
g1
(g2
g3
Ntp1671
Rp1672
S'U\x01@\xacw\x8d\x17\x15\xb9B\r\xfd'
p1673
bsVopen_hour
p1674
(lp1675
I0
aI86400
asVlocation
p1676
(lp1677
F113.819521
aF34.78206
asVaddress
p1678
V\u6cb3\u5357\u7701\u90d1\u5dde\u5e02\u91d1\u6c34\u533a\u91d1\u6c34\u4e1c\u8def
p1679
sVcreated_time
p1680
L1426145474007L
sV_id
p1681
g1655
sVtype
p1682
Vcvs
p1683
ssg1
(g2
g3
Ntp1684
Rp1685
S'U\x01@\xc2w\x8d\x17\x15\xb9B\x17W'
p1686
b(dp1687
Vstatus
p1688
Vopen
p1689
sVname
p1690
V\u6b66\u6c49\u4f53\u80b2\u5b66\u9662\u4e3b\u6821\u533a
p1691
sVschool_district
p1692
g1
(g2
g3
Ntp1693
Rp1694
S'U\x01@\xb9w\x8d\x17\x15\xb9B\x0e\x9c'
p1695
bsVmobile
p1696
V15527429367
p1697
sVmin_cost_to_deliver
p1698
I0
sVdelivery_price
p1699
I100
sVimage_id
p1700
g1
(g2
g3
Ntp1701
Rp1702
S'U\x01@\xacw\x8d\x17\x15\xb9B\r\xfd'
p1703
bsVopen_hour
p1704
(lp1705
I0
aI86400
asVlocation
p1706
(lp1707
F114.378189
aF30.520125
asVaddress
p1708
V\u6e56\u5317\u7701\u6b66\u6c49\u5e02\u6d2a\u5c71\u533a\u864e\u6cc9\u885787\u53f7-\u96447
p1709
sVcreated_time
p1710
L1426145474233L
sV_id
p1711
g1685
sVtype
p1712
Vcvs
p1713
ssg1
(g2
g3
Ntp1714
Rp1715
S'U\x01@\xc1w\x8d\x17\x15\xb9B\x0f\x7f'
p1716
b(dp1717
Vstatus
p1718
Vopen
p1719
sVname
p1720
V\u4e91\u5357\u4e2d\u533b\u5b66\u9662\u5448\u8d21\u6821\u533a
p1721
sVschool_district
p1722
g1
(g2
g3
Ntp1723
Rp1724
S'U\x01@\xc0w\x8d\x17\x15\xb9B\x0f\x03'
p1725
bsVmobile
p1726
V15987118415
p1727
sVmin_cost_to_deliver
p1728
I0
sVdelivery_price
p1729
I100
sVimage_id
p1730
g1
(g2
g3
Ntp1731
Rp1732
S'U\x01@\xacw\x8d\x17\x15\xb9B\r\xfd'
p1733
bsVopen_hour
p1734
(lp1735
I0
aI86400
asVlocation
p1736
(lp1737
F102.829661
aF24.844452
asVaddress
p1738
V\u4e91\u5357\u7701\u6606\u660e\u5e02\u5448\u8d21\u533a\u96e8\u82b1\u8def
p1739
sVcreated_time
p1740
L1426145473588L
sV_id
p1741
g1715
sVtype
p1742
Vcvs
p1743
ssg1
(g2
g3
Ntp1744
Rp1745
S'U\x01@\xc2w\x8d\x17\x15\xb9B\x15\xd7'
p1746
b(dp1747
Vstatus
p1748
Vopen
p1749
sVname
p1750
V\u5357\u4eac\u5de5\u7a0b\u5b66\u9662\u4e3b\u6821\u533a
p1751
sVschool_district
p1752
g1
(g2
g3
Ntp1753
Rp1754
S'U\x01@\xb4w\x8d\x17\x15\xb9B\x0ed'
p1755
bsVmobile
p1756
V18115132703
p1757
sVmin_cost_to_deliver
p1758
I0
sVdelivery_price
p1759
I100
sVimage_id
p1760
g1
(g2
g3
Ntp1761
Rp1762
S'U\x01@\xacw\x8d\x17\x15\xb9B\r\xfd'
p1763
bsVopen_hour
p1764
(lp1765
I0
aI86400
asVlocation
p1766
(lp1767
F118.875502
aF31.923418
asVaddress
p1768
V\u6c5f\u82cf\u7701\u5357\u4eac\u5e02\u6c5f\u5b81\u533a\u5929\u5370\u5927\u90532009
p1769
sVcreated_time
p1770
L1426145474109L
sV_id
p1771
g1745
sVtype
p1772
Vcvs
p1773
ssg1
(g2
g3
Ntp1774
Rp1775
S'U\x01@\xc2w\x8d\x17\x15\xb9B\x16\x0f'
p1776
b(dp1777
Vstatus
p1778
Vopen
p1779
sVname
p1780
V\u5c71\u897f\u5927\u5b66\u575e\u57ce\u6821\u533a
p1781
sVschool_district
p1782
g1
(g2
g3
Ntp1783
Rp1784
S'U\x01@\xb5w\x8d\x17\x15\xb9B\x0ep'
p1785
bsVmobile
p1786
V18435173808
p1787
sVmin_cost_to_deliver
p1788
I0
sVdelivery_price
p1789
I100
sVimage_id
p1790
g1
(g2
g3
Ntp1791
Rp1792
S'U\x01@\xacw\x8d\x17\x15\xb9B\r\xfd'
p1793
bsVopen_hour
p1794
(lp1795
I0
aI86400
asVlocation
p1796
(lp1797
F112.58892
aF37.800718
asVaddress
p1798
V\u5c71\u897f\u7701\u592a\u539f\u5e02\u5c0f\u5e97\u533a\u5357\u4e2d\u73af\u8857109-2
p1799
sVcreated_time
p1800
L1426145474125L
sV_id
p1801
g1775
sVtype
p1802
Vcvs
p1803
ssg1
(g2
g3
Ntp1804
Rp1805
S'U\x01@\xc1w\x8d\x17\x15\xb9B\x147'
p1806
b(dp1807
Vstatus
p1808
Vopen
p1809
sVname
p1810
V\u54c8\u5c14\u6ee8\u534e\u5fb7\u5b66\u9662\u4e3b\u6821\u533a
p1811
sVschool_district
p1812
g1
(g2
g3
Ntp1813
Rp1814
S"U\x01@\xb0w\x8d\x17\x15\xb9B\x0e'"
p1815
bsVmobile
p1816
V13845990157
p1817
sVmin_cost_to_deliver
p1818
I0
sVdelivery_price
p1819
I100
sVimage_id
p1820
g1
(g2
g3
Ntp1821
Rp1822
S'U\x01@\xacw\x8d\x17\x15\xb9B\r\xfd'
p1823
bsVopen_hour
p1824
(lp1825
I0
aI86400
asVlocation
p1826
(lp1827
F126.540634
aF45.876087
asVaddress
p1828
V\u9ed1\u9f99\u6c5f\u7701\u54c8\u5c14\u6ee8\u5e02\u547c\u5170\u533a\u83b1\u8335\u6cb3\u8857
p1829
sVcreated_time
p1830
L1426145473973L
sV_id
p1831
g1805
sVtype
p1832
Vcvs
p1833
ssg1
(g2
g3
Ntp1834
Rp1835
S'U\x01@\xc2w\x8d\x17\x15\xb9B\x14\x87'
p1836
b(dp1837
Vstatus
p1838
Vopen
p1839
sVname
p1840
V\u6cb3\u5317\u5916\u56fd\u8bed\u5b66\u9662\u4e3b\u6821\u533a
p1841
sVschool_district
p1842
g1
(g2
g3
Ntp1843
Rp1844
S'U\x01@\xb0w\x8d\x17\x15\xb9B\x0e1'
p1845
bsVmobile
p1846
V13230490889
p1847
sVmin_cost_to_deliver
p1848
I0
sVdelivery_price
p1849
I100
sVimage_id
p1850
g1
(g2
g3
Ntp1851
Rp1852
S'U\x01@\xacw\x8d\x17\x15\xb9B\r\xfd'
p1853
bsVopen_hour
p1854
(lp1855
I0
aI86400
asVlocation
p1856
(lp1857
F114.455694
aF37.994962
asVaddress
p1858
V\u6cb3\u5317\u7701\u77f3\u5bb6\u5e84\u5e02\u9e7f\u6cc9\u5e02s101
p1859
sVcreated_time
p1860
L1426145474000L
sV_id
p1861
g1835
sVtype
p1862
Vcvs
p1863
ssg1
(g2
g3
Ntp1864
Rp1865
S'U\x01@\xc2w\x8d\x17\x15\xb9B\x17O'
p1866
b(dp1867
Vstatus
p1868
Vopen
p1869
sVname
p1870
V\u6b66\u6c49\u751f\u7269\u5de5\u7a0b\u5b66\u9662\u4e3b\u6821\u533a
p1871
sVschool_district
p1872
g1
(g2
g3
Ntp1873
Rp1874
S'U\x01@\xb8w\x8d\x17\x15\xb9B\x0e\x9b'
p1875
bsVmobile
p1876
V18727598430
p1877
sVmin_cost_to_deliver
p1878
I0
sVdelivery_price
p1879
I100
sVimage_id
p1880
g1
(g2
g3
Ntp1881
Rp1882
S'U\x01@\xacw\x8d\x17\x15\xb9B\r\xfd'
p1883
bsVopen_hour
p1884
(lp1885
I0
aI86400
asVlocation
p1886
(lp1887
F114.527412
aF30.708926
asVaddress
p1888
V\u6e56\u5317\u7701\u6b66\u6c49\u5e02\u9ec4\u9642\u533as111
p1889
sVcreated_time
p1890
L1426145474231L
sV_id
p1891
g1865
sVtype
p1892
Vcvs
p1893
ssg1
(g2
g3
Ntp1894
Rp1895
S'U\x01@\xc1w\x8d\x17\x15\xb9B\x0fg'
p1896
b(dp1897
Vstatus
p1898
Vopen
p1899
sVname
p1900
V\u4e91\u5357\u5927\u5b66\u6ec7\u6c60\u5b66\u9662\u4e3b\u6821\u533a
p1901
sVschool_district
p1902
g1
(g2
g3
Ntp1903
Rp1904
S'U\x01@\xc0w\x8d\x17\x15\xb9B\x0f\x00'
p1905
bsVmobile
p1906
V13888640730
p1907
sVmin_cost_to_deliver
p1908
I0
sVdelivery_price
p1909
I100
sVimage_id
p1910
g1
(g2
g3
Ntp1911
Rp1912
S'U\x01@\xacw\x8d\x17\x15\xb9B\r\xfd'
p1913
bsVopen_hour
p1914
(lp1915
I0
aI86400
asVlocation
p1916
(lp1917
F102.67978
aF24.978889
asVaddress
p1918
V\u4e91\u5357\u7701\u6606\u660e\u5e02\u897f\u5c71\u533a\u7ea2\u5854\u4e1c\u8def2\u53f7
p1919
sVcreated_time
p1920
L1426145473581L
sV_id
p1921
g1895
sVtype
p1922
Vcvs
p1923
ssg1
(g2
g3
Ntp1924
Rp1925
S'U\x01@\xc2w\x8d\x17\x15\xb9B\x15\xcf'
p1926
b(dp1927
Vstatus
p1928
Vopen
p1929
sVname
p1930
V\u5357\u660c\u7406\u5de5\u5b66\u9662\u82f1\u96c4\u6821\u533a
p1931
sVschool_district
p1932
g1
(g2
g3
Ntp1933
Rp1934
S'U\x01@\xb4w\x8d\x17\x15\xb9B\x0ec'
p1935
bsVmobile
p1936
V13247717300
p1937
sVmin_cost_to_deliver
p1938
I0
sVdelivery_price
p1939
I100
sVimage_id
p1940
g1
(g2
g3
Ntp1941
Rp1942
S'U\x01@\xacw\x8d\x17\x15\xb9B\r\xfd'
p1943
bsVopen_hour
p1944
(lp1945
I0
aI86400
asVlocation
p1946
(lp1947
F115.861998
aF28.786232
asVaddress
p1948
V\u6c5f\u897f\u7701\u5357\u660c\u5e02\u9752\u5c71\u6e56\u533ag105
p1949
sVcreated_time
p1950
L1426145474107L
sV_id
p1951
g1925
sVtype
p1952
Vcvs
p1953
ssg1
(g2
g3
Ntp1954
Rp1955
S'U\x01@\xc2w\x8d\x17\x15\xb9B\x16\x07'
p1956
b(dp1957
Vstatus
p1958
Vopen
p1959
sVname
p1960
V\u5c71\u897f\u5927\u540c\u5927\u5b66\u5fa1\u4e1c\u6821\u533a
p1961
sVschool_district
p1962
g1
(g2
g3
Ntp1963
Rp1964
S'U\x01@\xb5w\x8d\x17\x15\xb9B\x0eo'
p1965
bsVmobile
p1966
V15735291791
p1967
sVmin_cost_to_deliver
p1968
I0
sVdelivery_price
p1969
I100
sVimage_id
p1970
g1
(g2
g3
Ntp1971
Rp1972
S'U\x01@\xacw\x8d\x17\x15\xb9B\r\xfd'
p1973
bsVopen_hour
p1974
(lp1975
I0
aI86400
asVlocation
p1976
(lp1977
F113.351633
aF40.094078
asVaddress
p1978
V\u5c71\u897f\u7701\u5927\u540c\u5e02\u5357\u90ca\u533ag109
p1979
sVcreated_time
p1980
L1426145474123L
sV_id
p1981
g1955
sVtype
p1982
Vcvs
p1983
ssg1
(g2
g3
Ntp1984
Rp1985
S'U\x01@\xc1w\x8d\x17\x15\xb9B\x14?'
p1986
b(dp1987
Vstatus
p1988
Vopen
p1989
sVname
p1990
V\u6d77\u5357\u5e08\u8303\u5927\u5b66\u6842\u6797\u6d0b\u6821\u533a
p1991
sVschool_district
p1992
g1
(g2
g3
Ntp1993
Rp1994
S'U\x01@\xb0w\x8d\x17\x15\xb9B\x0e('
p1995
bsVmobile
p1996
V18289356055
p1997
sVmin_cost_to_deliver
p1998
I0
sVdelivery_price
p1999
I100
sVimage_id
p2000
g1
(g2
g3
Ntp2001
Rp2002
S'U\x01@\xacw\x8d\x17\x15\xb9B\r\xfd'
p2003
bsVopen_hour
p2004
(lp2005
I0
aI86400
asVlocation
p2006
(lp2007
F110.513534
aF19.981738
asVaddress
p2008
V\u6d77\u5357\u7701\u6d77\u53e3\u5e02\u7f8e\u5170\u533a\u6821\u9645\u4e00\u53f7\u8def
p2009
sVcreated_time
p2010
L1426145473975L
sV_id
p2011
g1985
sVtype
p2012
Vcvs
p2013
ssg1
(g2
g3
Ntp2014
Rp2015
S'U\x01@\xc2w\x8d\x17\x15\xb9B\x14\x8f'
p2016
b(dp2017
Vstatus
p2018
Vopen
p2019
sVname
p2020
V\u6cb3\u6d77\u5927\u5b66\u6587\u5929\u5b66\u9662 \u4e3b\u6821\u533a
p2021
sVschool_district
p2022
g1
(g2
g3
Ntp2023
Rp2024
S'U\x01@\xb0w\x8d\x17\x15\xb9B\x0e2'
p2025
bsVmobile
p2026
V13225619551
p2027
sVmin_cost_to_deliver
p2028
I0
sVdelivery_price
p2029
I100
sVimage_id
p2030
g1
(g2
g3
Ntp2031
Rp2032
S'U\x01@\xacw\x8d\x17\x15\xb9B\r\xfd'
p2033
bsVopen_hour
p2034
(lp2035
I0
aI86400
asVlocation
p2036
(lp2037
F118.550069
aF31.662821
asVaddress
p2038
V\u5b89\u5fbd\u7701\u9a6c\u978d\u5c71\u5e02\u96e8\u5c71\u533a\u5b81\u829c\u9ad8\u901f\u516c\u8def
p2039
sVcreated_time
p2040
L1426145474003L
sV_id
p2041
g2015
sVtype
p2042
Vcvs
p2043
ssg1
(g2
g3
Ntp2044
Rp2045
S'U\x01@\xc2w\x8d\x17\x15\xb9B\x17G'
p2046
b(dp2047
Vstatus
p2048
Vopen
p2049
sVname
p2050
V\u6b66\u6c49\u7406\u5de5\u5927\u5b66\u4f59\u5bb6\u5934\u6821\u533a
p2051
sVschool_district
p2052
g1
(g2
g3
Ntp2053
Rp2054
S'U\x01@\xb8w\x8d\x17\x15\xb9B\x0e\x9a'
p2055
bsVmobile
p2056
V15870303276
p2057
sVmin_cost_to_deliver
p2058
I0
sVdelivery_price
p2059
I100
sVimage_id
p2060
g1
(g2
g3
Ntp2061
Rp2062
S'U\x01@\xacw\x8d\x17\x15\xb9B\r\xfd'
p2063
bsVopen_hour
p2064
(lp2065
I0
aI86400
asVlocation
p2066
(lp2067
F114.357748
aF30.606688
asVaddress
p2068
V\u6e56\u5317\u7701\u6b66\u6c49\u5e02\u6b66\u660c\u533a\u53cb\u8c0a\u5927\u9053
p2069
sVcreated_time
p2070
L1426145474228L
sV_id
p2071
g2045
sVtype
p2072
Vcvs
p2073
ssg1
(g2
g3
Ntp2074
Rp2075
S'U\x01@\xc1w\x8d\x17\x15\xb9B\x0fo'
p2076
b(dp2077
Vstatus
p2078
Vopen
p2079
sVname
p2080
V\u4e91\u5357\u5de5\u5546\u5b66\u9662\u4e3b\u6821\u533a
p2081
sVschool_district
p2082
g1
(g2
g3
Ntp2083
Rp2084
S'U\x01@\xc0w\x8d\x17\x15\xb9B\x0f\x01'
p2085
bsVmobile
p2086
V15559723480
p2087
sVmin_cost_to_deliver
p2088
I0
sVdelivery_price
p2089
I100
sVimage_id
p2090
g1
(g2
g3
Ntp2091
Rp2092
S'U\x01@\xacw\x8d\x17\x15\xb9B\r\xfd'
p2093
bsVopen_hour
p2094
(lp2095
I0
aI86400
asVlocation
p2096
(lp2097
F103.014196
aF25.247915
asVaddress
p2098
V\u4e91\u5357\u7701\u6606\u660e\u5e02\u5d69\u660e\u53bf\u5b98\u519b\u8def
p2099
sVcreated_time
p2100
L1426145473584L
sV_id
p2101
g2075
sVtype
p2102
Vcvs
p2103
ssg1
(g2
g3
Ntp2104
Rp2105
S'U\x01@\xc2w\x8d\x17\x15\xb9B\x15\xc7'
p2106
b(dp2107
Vstatus
p2108
Vopen
p2109
sVname
p2110
V\u516d\u5b89\u804c\u4e1a\u6280\u672f\u5b66\u9662\u4e3b\u6821\u533a
p2111
sVschool_district
p2112
g1
(g2
g3
Ntp2113
Rp2114
S'U\x01@\xb4w\x8d\x17\x15\xb9B\x0eb'
p2115
bsVmobile
p2116
V15556671521
p2117
sVmin_cost_to_deliver
p2118
I0
sVdelivery_price
p2119
I100
sVimage_id
p2120
g1
(g2
g3
Ntp2121
Rp2122
S'U\x01@\xacw\x8d\x17\x15\xb9B\r\xfd'
p2123
bsVopen_hour
p2124
(lp2125
I0
aI86400
asVlocation
p2126
(lp2127
F116.544876
aF31.829437
asVaddress
p2128
V\u5b89\u5fbd\u7701\u516d\u5b89\u5e02\u91d1\u5b89\u533as203
p2129
sVcreated_time
p2130
L1426145474105L
sV_id
p2131
g2105
sVtype
p2132
Vcvs
p2133
ssg1
(g2
g3
Ntp2134
Rp2135
S'U\x01@\xc2w\x8d\x17\x15\xb9B\x16?'
p2136
b(dp2137
Vstatus
p2138
Vopen
p2139
sVname
p2140
V\u5c71\u897f\u804c\u4e1a\u6280\u672f\u5b66\u9662\u897f\u6821\u533a
p2141
sVschool_district
p2142
g1
(g2
g3
Ntp2143
Rp2144
S'U\x01@\xb6w\x8d\x17\x15\xb9B\x0ew'
p2145
bsVmobile
p2146
V13994259978
p2147
sVmin_cost_to_deliver
p2148
I0
sVdelivery_price
p2149
I100
sVimage_id
p2150
g1
(g2
g3
Ntp2151
Rp2152
S'U\x01@\xacw\x8d\x17\x15\xb9B\r\xfd'
p2153
bsVopen_hour
p2154
(lp2155
I0
aI86400
asVlocation
p2156
(lp2157
F112.583346
aF37.79561
asVaddress
p2158
V\u5c71\u897f\u7701\u592a\u539f\u5e02\u5c0f\u5e97\u533a\u9488\u7ec7\u8857
p2159
sVcreated_time
p2160
L1426145474144L
sV_id
p2161
g2135
sVtype
p2162
Vcvs
p2163
ssg1
(g2
g3
Ntp2164
Rp2165
S'U\x01@\xc1w\x8d\x17\x15\xb9B\x14\x07'
p2166
b(dp2167
Vstatus
p2168
Vopen
p2169
sVname
p2170
V\u5e7f\u5dde\u533b\u79d1\u5927\u5b66\u756a\u79ba\u6821\u533a
p2171
sVschool_district
p2172
g1
(g2
g3
Ntp2173
Rp2174
S'U\x01@\xafw\x8d\x17\x15\xb9B\x0e!'
p2175
bsVmobile
p2176
V18819499416
p2177
sVmin_cost_to_deliver
p2178
I0
sVdelivery_price
p2179
I100
sVimage_id
p2180
g1
(g2
g3
Ntp2181
Rp2182
S'U\x01@\xacw\x8d\x17\x15\xb9B\r\xfd'
p2183
bsVopen_hour
p2184
(lp2185
I0
aI86400
asVlocation
p2186
(lp2187
F113.423768
aF23.041953
asVaddress
p2188
V\u5e7f\u4e1c\u7701\u5e7f\u5dde\u5e02\u756a\u79ba\u533a\u65b0\u5341\u8def1\u53f7
p2189
sVcreated_time
p2190
L1426145473955L
sV_id
p2191
g2165
sVtype
p2192
Vcvs
p2193
ssg1
(g2
g3
Ntp2194
Rp2195
S'U\x01@\xc2w\x8d\x17\x15\xb9B\x14\xb7'
p2196
b(dp2197
Vstatus
p2198
Vopen
p2199
sVname
p2200
V\u6cb3\u5357\u7406\u5de5\u5927\u5b66\u4e07\u65b9\u79d1\u6280\u5b66\u9662\u90d1\u5dde\u6821\u533a
p2201
sVschool_district
p2202
g1
(g2
g3
Ntp2203
Rp2204
S'U\x01@\xb1w\x8d\x17\x15\xb9B\x0e7'
p2205
bsVmobile
p2206
V15937802857
p2207
sVmin_cost_to_deliver
p2208
I0
sVdelivery_price
p2209
I100
sVimage_id
p2210
g1
(g2
g3
Ntp2211
Rp2212
S'U\x01@\xacw\x8d\x17\x15\xb9B\r\xfd'
p2213
bsVopen_hour
p2214
(lp2215
I0
aI86400
asVlocation
p2216
(lp2217
F113.886755
aF34.791048
asVaddress
p2218
V\u6cb3\u5357\u7701\u90d1\u5dde\u5e02\u4e2d\u725f\u53bf\u90d1\u5f00\u5927\u9053
p2219
sVcreated_time
p2220
L1426145474014L
sV_id
p2221
g2195
sVtype
p2222
Vcvs
p2223
ssg1
(g2
g3
Ntp2224
Rp2225
S'U\x01@\xc2w\x8d\x17\x15\xb9B\x17\x7f'
p2226
b(dp2227
Vstatus
p2228
Vopen
p2229
sVname
p2230
V\u897f\u5b89\u77f3\u6cb9\u5927\u5b66\u6237\u53bf\u65b0\u6821\u533a
p2231
sVschool_district
p2232
g1
(g2
g3
Ntp2233
Rp2234
S'U\x01@\xb9w\x8d\x17\x15\xb9B\x0e\xa1'
p2235
bsVmobile
p2236
V18792654295
p2237
sVmin_cost_to_deliver
p2238
I0
sVdelivery_price
p2239
I100
sVimage_id
p2240
g1
(g2
g3
Ntp2241
Rp2242
S'U\x01@\xacw\x8d\x17\x15\xb9B\r\xfd'
p2243
bsVopen_hour
p2244
(lp2245
I0
aI86400
asVlocation
p2246
(lp2247
F108.65414
aF34.103134
asVaddress
p2248
V\u9655\u897f\u7701\u897f\u5b89\u5e02\u6237\u53bf\u6f6d\u6ee8\u5357\u8def
p2249
sVcreated_time
p2250
L1426145474249L
sV_id
p2251
g2225
sVtype
p2252
Vcvs
p2253
ssg1
(g2
g3
Ntp2254
Rp2255
S'U\x01@\xc1w\x8d\x17\x15\xb9B\x0fW'
p2256
b(dp2257
Vstatus
p2258
Vopen
p2259
sVname
p2260
V\u6d77\u6e90\u5b66\u9662\u4e3b\u6821\u533a
p2261
sVschool_district
p2262
g1
(g2
g3
Ntp2263
Rp2264
S'U\x01@\xc0w\x8d\x17\x15\xb9B\x0e\xfe'
p2265
bsVmobile
p2266
V18313942517
p2267
sVmin_cost_to_deliver
p2268
I0
sVdelivery_price
p2269
I100
sVimage_id
p2270
g1
(g2
g3
Ntp2271
Rp2272
S'U\x01@\xacw\x8d\x17\x15\xb9B\r\xfd'
p2273
bsVopen_hour
p2274
(lp2275
I0
aI86400
asVlocation
p2276
(lp2277
F102.998165
aF25.24535
asVaddress
p2278
V\u4e91\u5357\u7701\u6606\u660e\u5e02\u5d69\u660e\u53bf
p2279
sVcreated_time
p2280
L1426145473577L
sV_id
p2281
g2255
sVtype
p2282
Vcvs
p2283
ssg1
(g2
g3
Ntp2284
Rp2285
S'U\x01@\xc2w\x8d\x17\x15\xb9B\x15\xff'
p2286
b(dp2287
Vstatus
p2288
Vopen
p2289
sVname
p2290
V\u5c71\u4e1c\u82f1\u624d\u5b66\u9662\u5317\u6821\u533a
p2291
sVschool_district
p2292
g1
(g2
g3
Ntp2293
Rp2294
S'U\x01@\xb5w\x8d\x17\x15\xb9B\x0en'
p2295
bsVmobile
p2296
V18326199973
p2297
sVmin_cost_to_deliver
p2298
I0
sVdelivery_price
p2299
I100
sVimage_id
p2300
g1
(g2
g3
Ntp2301
Rp2302
S'U\x01@\xacw\x8d\x17\x15\xb9B\r\xfd'
p2303
bsVopen_hour
p2304
(lp2305
I0
aI86400
asVlocation
p2306
(lp2307
F117.111682
aF36.853767
asVaddress
p2308
V\u5c71\u4e1c\u7701\u6d4e\u5357\u5e02\u6d4e\u9633\u53bfg20
p2309
sVcreated_time
p2310
L1426145474121L
sV_id
p2311
g2285
sVtype
p2312
Vcvs
p2313
ssg1
(g2
g3
Ntp2314
Rp2315
S'U\x01@\xc2w\x8d\x17\x15\xb9B\x167'
p2316
b(dp2317
Vstatus
p2318
Vopen
p2319
sVname
p2320
V\u5c71\u897f\u5e94\u7528\u79d1\u6280\u5b66\u9662\u4e3b\u6821\u533a
p2321
sVschool_district
p2322
g1
(g2
g3
Ntp2323
Rp2324
S'U\x01@\xb6w\x8d\x17\x15\xb9B\x0ev'
p2325
bsVmobile
p2326
V15235674373
p2327
sVmin_cost_to_deliver
p2328
I0
sVdelivery_price
p2329
I100
sVimage_id
p2330
g1
(g2
g3
Ntp2331
Rp2332
S'U\x01@\xacw\x8d\x17\x15\xb9B\r\xfd'
p2333
bsVopen_hour
p2334
(lp2335
I0
aI86400
asVlocation
p2336
(lp2337
F112.581243
aF37.626536
asVaddress
p2338
V\u5c71\u897f\u7701\u592a\u539f\u5e02\u5c0f\u5e97\u533as316
p2339
sVcreated_time
p2340
L1426145474141L
sV_id
p2341
g2315
sVtype
p2342
Vcvs
p2343
ssg1
(g2
g3
Ntp2344
Rp2345
S'U\x01@\xc1w\x8d\x17\x15\xb9B\x14\x0f'
p2346
b(dp2347
Vstatus
p2348
Vopen
p2349
sVname
p2350
V\u5e7f\u5dde\u533b\u79d1\u5927\u5b66\u4e1c\u98ce\u897f\u6821\u533a
p2351
sVschool_district
p2352
g1
(g2
g3
Ntp2353
Rp2354
S'U\x01@\xafw\x8d\x17\x15\xb9B\x0e"'
p2355
bsVmobile
p2356
V18819499416
p2357
sVmin_cost_to_deliver
p2358
I0
sVdelivery_price
p2359
I100
sVimage_id
p2360
g1
(g2
g3
Ntp2361
Rp2362
S'U\x01@\xacw\x8d\x17\x15\xb9B\r\xfd'
p2363
bsVopen_hour
p2364
(lp2365
I0
aI86400
asVlocation
p2366
(lp2367
F113.255808
aF23.134223
asVaddress
p2368
V\u5e7f\u4e1c\u7701\u5e7f\u5dde\u5e02\u8354\u6e7e\u533a\u82a6\u837b\u885796\u53f7
p2369
sVcreated_time
p2370
L1426145473957L
sV_id
p2371
g2345
sVtype
p2372
Vcvs
p2373
ssg1
(g2
g3
Ntp2374
Rp2375
S'U\x01@\xc2w\x8d\x17\x15\xb9B\x14\xbf'
p2376
b(dp2377
Vstatus
p2378
Vopen
p2379
sVname
p2380
V\u6cb3\u5357\u519c\u4e1a\u5927\u5b66\u8bb8\u660c\u6821\u533a
p2381
sVschool_district
p2382
g1
(g2
g3
Ntp2383
Rp2384
S'U\x01@\xb1w\x8d\x17\x15\xb9B\x0e8'
p2385
bsVmobile
p2386
V15565313652
p2387
sVmin_cost_to_deliver
p2388
I0
sVdelivery_price
p2389
I100
sVimage_id
p2390
g1
(g2
g3
Ntp2391
Rp2392
S'U\x01@\xacw\x8d\x17\x15\xb9B\r\xfd'
p2393
bsVopen_hour
p2394
(lp2395
I0
aI86400
asVlocation
p2396
(lp2397
F113.804539
aF34.130244
asVaddress
p2398
V\u6cb3\u5357\u7701\u8bb8\u660c\u5e02\u8bb8\u660c\u53bf
p2399
sVcreated_time
p2400
L1426145474017L
sV_id
p2401
g2375
sVtype
p2402
Vcvs
p2403
ssg1
(g2
g3
Ntp2404
Rp2405
S'U\x01@\xc2w\x8d\x17\x15\xb9B\x17w'
p2406
b(dp2407
Vstatus
p2408
Vopen
p2409
sVname
p2410
V\u897f\u5b89\u6b27\u4e9a\u5b66\u9662\u4e3b\u6821\u533a
p2411
sVschool_district
p2412
g1
(g2
g3
Ntp2413
Rp2414
S'U\x01@\xb9w\x8d\x17\x15\xb9B\x0e\xa0'
p2415
bsVmobile
p2416
V13320666300
p2417
sVmin_cost_to_deliver
p2418
I0
sVdelivery_price
p2419
I100
sVimage_id
p2420
g1
(g2
g3
Ntp2421
Rp2422
S'U\x01@\xacw\x8d\x17\x15\xb9B\r\xfd'
p2423
bsVopen_hour
p2424
(lp2425
I0
aI86400
asVlocation
p2426
(lp2427
F108.921546
aF34.173261
asVaddress
p2428
V\u9655\u897f\u7701\u897f\u5b89\u5e02\u957f\u5b89\u533a\u6cb3\u5824\u8def
p2429
sVcreated_time
p2430
L1426145474242L
sV_id
p2431
g2405
sVtype
p2432
Vcvs
p2433
ssg1
(g2
g3
Ntp2434
Rp2435
S'U\x01@\xc1w\x8d\x17\x15\xb9B\x0f_'
p2436
b(dp2437
Vstatus
p2438
Vopen
p2439
sVname
p2440
V\u4e91\u5357\u65c5\u6e38\u5b66\u9662\u4e3b\u6821\u533a
p2441
sVschool_district
p2442
g1
(g2
g3
Ntp2443
Rp2444
S'U\x01@\xc0w\x8d\x17\x15\xb9B\x0e\xff'
p2445
bsVmobile
p2446
V18687716160
p2447
sVmin_cost_to_deliver
p2448
I0
sVdelivery_price
p2449
I100
sVimage_id
p2450
g1
(g2
g3
Ntp2451
Rp2452
S'U\x01@\xacw\x8d\x17\x15\xb9B\r\xfd'
p2453
bsVopen_hour
p2454
(lp2455
I0
aI86400
asVlocation
p2456
(lp2457
F102.717478
aF25.082134
asVaddress
p2458
V\u4e91\u5357\u7701\u6606\u660e\u5e02\u4e94\u534e\u533a\u9f99\u6cc9\u8def238
p2459
sVcreated_time
p2460
L1426145473579L
sV_id
p2461
g2435
sVtype
p2462
Vcvs
p2463
ssg1
(g2
g3
Ntp2464
Rp2465
S'U\x01@\xc2w\x8d\x17\x15\xb9B\x15\xf7'
p2466
b(dp2467
Vstatus
p2468
Vopen
p2469
sVname
p2470
V\u5c71\u4e1c\u7406\u5de5\u5927\u5b66\u4e3b\u6821\u533a
p2471
sVschool_district
p2472
g1
(g2
g3
Ntp2473
Rp2474
S'U\x01@\xb5w\x8d\x17\x15\xb9B\x0em'
p2475
bsVmobile
p2476
V18753363801
p2477
sVmin_cost_to_deliver
p2478
I0
sVdelivery_price
p2479
I100
sVimage_id
p2480
g1
(g2
g3
Ntp2481
Rp2482
S'U\x01@\xacw\x8d\x17\x15\xb9B\r\xfd'
p2483
bsVopen_hour
p2484
(lp2485
I0
aI86400
asVlocation
p2486
(lp2487
F117.999765
aF36.810007
asVaddress
p2488
V\u5c71\u4e1c\u7701\u6dc4\u535a\u5e02\u5f20\u5e97\u533a\u897f\u5341\u8def
p2489
sVcreated_time
p2490
L1426145474118L
sV_id
p2491
g2465
sVtype
p2492
Vcvs
p2493
ssg1
(g2
g3
Ntp2494
Rp2495
S'U\x01@\xc2w\x8d\x17\x15\xb9B\x16/'
p2496
b(dp2497
Vstatus
p2498
Vopen
p2499
sVname
p2500
V\u5c71\u897f\u5e08\u8303\u5927\u5b66\u4e00\u6821\u533a
p2501
sVschool_district
p2502
g1
(g2
g3
Ntp2503
Rp2504
S'U\x01@\xb6w\x8d\x17\x15\xb9B\x0eu'
p2505
bsVmobile
p2506
V18703478176
p2507
sVmin_cost_to_deliver
p2508
I0
sVdelivery_price
p2509
I100
sVimage_id
p2510
g1
(g2
g3
Ntp2511
Rp2512
S'U\x01@\xacw\x8d\x17\x15\xb9B\r\xfd'
p2513
bsVopen_hour
p2514
(lp2515
I0
aI86400
asVlocation
p2516
(lp2517
F111.501268
aF36.077897
asVaddress
p2518
V\u5c71\u897f\u7701\u4e34\u6c7e\u5e02\u5c27\u90fd\u533a\u6ee8\u6cb3\u8def
p2519
sVcreated_time
p2520
L1426145474135L
sV_id
p2521
g2495
sVtype
p2522
Vcvs
p2523
ssg1
(g2
g3
Ntp2524
Rp2525
S'U\x01@\xc1w\x8d\x17\x15\xb9B\x14\x17'
p2526
b(dp2527
Vstatus
p2528
Vopen
p2529
sVname
p2530
V\u8d35\u5dde\u5927\u5b66\u5357\u6821\u533a
p2531
sVschool_district
p2532
g1
(g2
g3
Ntp2533
Rp2534
S'U\x01@\xafw\x8d\x17\x15\xb9B\x0e#'
p2535
bsVmobile
p2536
V13398524042
p2537
sVmin_cost_to_deliver
p2538
I0
sVdelivery_price
p2539
I100
sVimage_id
p2540
g1
(g2
g3
Ntp2541
Rp2542
S'U\x01@\xacw\x8d\x17\x15\xb9B\r\xfd'
p2543
bsVopen_hour
p2544
(lp2545
I0
aI86400
asVlocation
p2546
(lp2547
F106.676129
aF26.440566
asVaddress
p2548
V\u8d35\u5dde\u7701\u8d35\u9633\u5e02\u82b1\u6eaa\u533a\u6eaa\u5317\u8def
p2549
sVcreated_time
p2550
L1426145473960L
sV_id
p2551
g2525
sVtype
p2552
Vcvs
p2553
ssg1
(g2
g3
Ntp2554
Rp2555
S'U\x01@\xc2w\x8d\x17\x15\xb9B\x14\xa7'
p2556
b(dp2557
Vstatus
p2558
Vopen
p2559
sVname
p2560
V\u6cb3\u5357\u5927\u5b66 \u660e\u4f26\u6821\u533a
p2561
sVschool_district
p2562
g1
(g2
g3
Ntp2563
Rp2564
S'U\x01@\xb1w\x8d\x17\x15\xb9B\x0e5'
p2565
bsVmobile
p2566
V18317896232
p2567
sVmin_cost_to_deliver
p2568
I0
sVdelivery_price
p2569
I100
sVimage_id
p2570
g1
(g2
g3
Ntp2571
Rp2572
S'U\x01@\xacw\x8d\x17\x15\xb9B\r\xfd'
p2573
bsVopen_hour
p2574
(lp2575
I0
aI86400
asVlocation
p2576
(lp2577
F114.369753
aF34.808921
asVaddress
p2578
V\u6cb3\u5357\u7701\u5f00\u5c01\u5e02\u5f00\u5c01\u5e02\u5e02\u8f96\u533a\u4e1c\u68da\u677f\u885719\u53f7
p2579
sVcreated_time
p2580
L1426145474010L
sV_id
p2581
g2555
sVtype
p2582
Vcvs
p2583
ssg1
(g2
g3
Ntp2584
Rp2585
S'U\x01@\xc2w\x8d\x17\x15\xb9B\x17o'
p2586
b(dp2587
Vstatus
p2588
Vopen
p2589
sVname
p2590
V\u897f\u5b89\u822a\u7a7a\u804c\u4e1a\u6280\u672f\u5b66\u9662\u65b0\u6821\u533a
p2591
sVschool_district
p2592
g1
(g2
g3
Ntp2593
Rp2594
S'U\x01@\xb9w\x8d\x17\x15\xb9B\x0e\x9f'
p2595
bsVmobile
p2596
V18240884953
p2597
sVmin_cost_to_deliver
p2598
I0
sVdelivery_price
p2599
I100
sVimage_id
p2600
g1
(g2
g3
Ntp2601
Rp2602
S'U\x01@\xacw\x8d\x17\x15\xb9B\r\xfd'
p2603
bsVopen_hour
p2604
(lp2605
I0
aI86400
asVlocation
p2606
(lp2607
F109.211021
aF34.650677
asVaddress
p2608
V\u9655\u897f\u7701\u897f\u5b89\u5e02\u960e\u826f\u533a
p2609
sVcreated_time
p2610
L1426145474240L
sV_id
p2611
g2585
sVtype
p2612
Vcvs
p2613
ssg1
(g2
g3
Ntp2614
Rp2615
S'U\x01@\xc1w\x8d\x17\x15\xb9B\x0fG'
p2616
b(dp2617
Vstatus
p2618
Vopen
p2619
sVname
p2620
V\u5927\u7406\u5b66\u9662\u4e3b\u6821\u533a
p2621
sVschool_district
p2622
g1
(g2
g3
Ntp2623
Rp2624
S'U\x01@\xc0w\x8d\x17\x15\xb9B\x0e\xfc'
p2625
bsVmobile
p2626
V13095254380
p2627
sVmin_cost_to_deliver
p2628
I0
sVdelivery_price
p2629
I100
sVimage_id
p2630
g1
(g2
g3
Ntp2631
Rp2632
S'U\x01@\xacw\x8d\x17\x15\xb9B\r\xfd'
p2633
bsVopen_hour
p2634
(lp2635
I0
aI86400
asVlocation
p2636
(lp2637
F100.164092
aF25.679168
asVaddress
p2638
V\u4e91\u5357\u7701\u5927\u7406\u767d\u65cf\u81ea\u6cbb\u5dde\u5927\u7406\u5e02\u5f18\u5723\u8def2\u53f7
p2639
sVcreated_time
p2640
L1426145473572L
sV_id
p2641
g2615
sVtype
p2642
Vcvs
p2643
ssg1
(g2
g3
Ntp2644
Rp2645
S'U\x01@\xc2w\x8d\x17\x15\xb9B\x15\xef'
p2646
b(dp2647
Vstatus
p2648
Vopen
p2649
sVname
p2650
V\u5357\u9633\u5e08\u8303\u5b66\u9662\u4e3b\u6821\u533a
p2651
sVschool_district
p2652
g1
(g2
g3
Ntp2653
Rp2654
S'U\x01@\xb5w\x8d\x17\x15\xb9B\x0ej'
p2655
bsVmobile
p2656
V15093019013
p2657
sVmin_cost_to_deliver
p2658
I0
sVdelivery_price
p2659
I100
sVimage_id
p2660
g1
(g2
g3
Ntp2661
Rp2662
S'U\x01@\xacw\x8d\x17\x15\xb9B\r\xfd'
p2663
bsVopen_hour
p2664
(lp2665
I0
aI86400
asVlocation
p2666
(lp2667
F112.495063
aF32.973928
asVaddress
p2668
V\u6cb3\u5357\u7701\u5357\u9633\u5e02\u5367\u9f99\u533as231
p2669
sVcreated_time
p2670
L1426145474116L
sV_id
p2671
g2645
sVtype
p2672
Vcvs
p2673
ssg1
(g2
g3
Ntp2674
Rp2675
S"U\x01@\xc2w\x8d\x17\x15\xb9B\x16'"
p2676
b(dp2677
Vstatus
p2678
Vopen
p2679
sVname
p2680
V\u5c71\u897f\u519c\u4e1a\u5927\u5b66\u4e3b\u6821\u533a
p2681
sVschool_district
p2682
g1
(g2
g3
Ntp2683
Rp2684
S'U\x01@\xb6w\x8d\x17\x15\xb9B\x0et'
p2685
bsVmobile
p2686
V18235488510
p2687
sVmin_cost_to_deliver
p2688
I0
sVdelivery_price
p2689
I100
sVimage_id
p2690
g1
(g2
g3
Ntp2691
Rp2692
S'U\x01@\xacw\x8d\x17\x15\xb9B\r\xfd'
p2693
bsVopen_hour
p2694
(lp2695
I0
aI86400
asVlocation
p2696
(lp2697
F112.578577
aF37.424128
asVaddress
p2698
V\u5c71\u897f\u7701\u664b\u4e2d\u5e02\u592a\u8c37\u53bfx370
p2699
sVcreated_time
p2700
L1426145474132L
sV_id
p2701
g2675
sVtype
p2702
Vcvs
p2703
ssg1
(g2
g3
Ntp2704
Rp2705
S'U\x01@\xc1w\x8d\x17\x15\xb9B\x14\x1f'
p2706
b(dp2707
Vstatus
p2708
Vopen
p2709
sVname
p2710
V\u8d35\u5dde\u5546\u4e1a\u9ad8\u7b49\u4e13\u79d1\u5b66\u6821\u4e3b\u6821\u533a
p2711
sVschool_district
p2712
g1
(g2
g3
Ntp2713
Rp2714
S'U\x01@\xafw\x8d\x17\x15\xb9B\x0e$'
p2715
bsVmobile
p2716
V13087822886
p2717
sVmin_cost_to_deliver
p2718
I0
sVdelivery_price
p2719
I100
sVimage_id
p2720
g1
(g2
g3
Ntp2721
Rp2722
S'U\x01@\xacw\x8d\x17\x15\xb9B\r\xfd'
p2723
bsVopen_hour
p2724
(lp2725
I0
aI86400
asVlocation
p2726
(lp2727
F106.710822
aF26.599526
asVaddress
p2728
V\u8d35\u5dde\u7701\u8d35\u9633\u5e02\u4e91\u5ca9\u533a\u4e91\u5ca9\u885754\u53f7
p2729
sVcreated_time
p2730
L1426145473962L
sV_id
p2731
g2705
sVtype
p2732
Vcvs
p2733
ssg1
(g2
g3
Ntp2734
Rp2735
S'U\x01@\xc2w\x8d\x17\x15\xb9B\x14\xaf'
p2736
b(dp2737
Vstatus
p2738
Vopen
p2739
sVname
p2740
V\u6cb3\u5357\u5efa\u7b51\u804c\u4e1a\u6280\u672f\u5b66\u9662\u4e3b\u6821\u533a
p2741
sVschool_district
p2742
g1
(g2
g3
Ntp2743
Rp2744
S'U\x01@\xb1w\x8d\x17\x15\xb9B\x0e6'
p2745
bsVmobile
p2746
V13223712320
p2747
sVmin_cost_to_deliver
p2748
I0
sVdelivery_price
p2749
I100
sVimage_id
p2750
g1
(g2
g3
Ntp2751
Rp2752
S'U\x01@\xacw\x8d\x17\x15\xb9B\r\xfd'
p2753
bsVopen_hour
p2754
(lp2755
I0
aI86400
asVlocation
p2756
(lp2757
F113.522355
aF34.71288
asVaddress
p2758
V\u6cb3\u5357\u7701\u90d1\u5dde\u5e02\u4e8c\u4e03\u533a\u540c\u5174\u8857
p2759
sVcreated_time
p2760
L1426145474012L
sV_id
p2761
g2735
sVtype
p2762
Vcvs
p2763
ssg1
(g2
g3
Ntp2764
Rp2765
S'U\x01@\xc2w\x8d\x17\x15\xb9B\x17g'
p2766
b(dp2767
Vstatus
p2768
Vopen
p2769
sVname
p2770
V\u897f\u5b89\u822a\u7a7a\u804c\u4e1a\u6280\u672f\u5b66\u9662\u8001\u6821\u533a
p2771
sVschool_district
p2772
g1
(g2
g3
Ntp2773
Rp2774
S'U\x01@\xb9w\x8d\x17\x15\xb9B\x0e\x9e'
p2775
bsVmobile
p2776
V18240884953
p2777
sVmin_cost_to_deliver
p2778
I0
sVdelivery_price
p2779
I100
sVimage_id
p2780
g1
(g2
g3
Ntp2781
Rp2782
S'U\x01@\xacw\x8d\x17\x15\xb9B\r\xfd'
p2783
bsVopen_hour
p2784
(lp2785
I0
aI86400
asVlocation
p2786
(lp2787
F109.213596
aF34.657031
asVaddress
p2788
V\u9655\u897f\u7701\u897f\u5b89\u5e02\u960e\u826f\u533a\u4eba\u6c11\u897f\u8def
p2789
sVcreated_time
p2790
L1426145474237L
sV_id
p2791
g2765
sVtype
p2792
Vcvs
p2793
ssg1
(g2
g3
Ntp2794
Rp2795
S'U\x01@\xc1w\x8d\x17\x15\xb9B\x0fO'
p2796
b(dp2797
Vstatus
p2798
Vopen
p2799
sVname
p2800
V\u4e91\u5357\u5de5\u7a0b\u804c\u4e1a\u5b66\u9662\u4e3b\u6821\u533a
p2801
sVschool_district
p2802
g1
(g2
g3
Ntp2803
Rp2804
S'U\x01@\xc0w\x8d\x17\x15\xb9B\x0e\xfd'
p2805
bsVmobile
p2806
V15587258945
p2807
sVmin_cost_to_deliver
p2808
I0
sVdelivery_price
p2809
I100
sVimage_id
p2810
g1
(g2
g3
Ntp2811
Rp2812
S'U\x01@\xacw\x8d\x17\x15\xb9B\r\xfd'
p2813
bsVopen_hour
p2814
(lp2815
I0
aI86400
asVlocation
p2816
(lp2817
F102.441546
aF24.899567
asVaddress
p2818
V\u4e91\u5357\u7701\u6606\u660e\u5e02\u5b89\u5b81\u5e02
p2819
sVcreated_time
p2820
L1426145473575L
sV_id
p2821
g2795
sVtype
p2822
Vcvs
p2823
ssg1
(g2
g3
Ntp2824
Rp2825
S'U\x01@\xc2w\x8d\x17\x15\xb9B\x15\xe7'
p2826
b(dp2827
Vstatus
p2828
Vopen
p2829
sVname
p2830
V\u5357\u4eac\u4fe1\u606f\u5de5\u7a0b\u5927\u5b66\u4e3b\u6821\u533a
p2831
sVschool_district
p2832
g1
(g2
g3
Ntp2833
Rp2834
S'U\x01@\xb5w\x8d\x17\x15\xb9B\x0eh'
p2835
bsVmobile
p2836
V18751905690
p2837
sVmin_cost_to_deliver
p2838
I0
sVdelivery_price
p2839
I100
sVimage_id
p2840
g1
(g2
g3
Ntp2841
Rp2842
S'U\x01@\xacw\x8d\x17\x15\xb9B\r\xfd'
p2843
bsVopen_hour
p2844
(lp2845
I0
aI86400
asVlocation
p2846
(lp2847
F118.72304
aF32.204399
asVaddress
p2848
V\u6c5f\u82cf\u7701\u5357\u4eac\u5e02\u6d66\u53e3\u533a\u9f99\u5c71\u5317\u8def
p2849
sVcreated_time
p2850
L1426145474114L
sV_id
p2851
g2825
sVtype
p2852
Vcvs
p2853
ssg1
(g2
g3
Ntp2854
Rp2855
S'U\x01@\xc2w\x8d\x17\x15\xb9B\x16\xdf'
p2856
b(dp2857
Vstatus
p2858
Vopen
p2859
sVname
p2860
V\u5510\u5c71\u5b66\u9662\u5317\u6821\u533a
p2861
sVschool_district
p2862
g1
(g2
g3
Ntp2863
Rp2864
S'U\x01@\xb7w\x8d\x17\x15\xb9B\x0e\x8d'
p2865
bsVmobile
p2866
V15230526319
p2867
sVmin_cost_to_deliver
p2868
I0
sVdelivery_price
p2869
I100
sVimage_id
p2870
g1
(g2
g3
Ntp2871
Rp2872
S'U\x01@\xacw\x8d\x17\x15\xb9B\r\xfd'
p2873
bsVopen_hour
p2874
(lp2875
I0
aI86400
asVlocation
p2876
(lp2877
F118.166541
aF39.653565
asVaddress
p2878
V\u6cb3\u5317\u7701\u5510\u5c71\u5e02\u8def\u5317\u533a\u5b66\u9662\u5317\u8def
p2879
sVcreated_time
p2880
L1426145474199L
sV_id
p2881
g2855
sVtype
p2882
Vcvs
p2883
ssg1
(g2
g3
Ntp2884
Rp2885
S'U\x01@\xc1w\x8d\x17\x15\xb9B\x13\xd7'
p2886
b(dp2887
Vstatus
p2888
Vopen
p2889
sVname
p2890
V\u5e7f\u4e1c\u6280\u672f\u5e08\u8303\u5b66\u9662\u5929\u6cb3\u5b66\u9662\u4e3b\u6821\u533a
p2891
sVschool_district
p2892
g1
(g2
g3
Ntp2893
Rp2894
S'U\x01@\xafw\x8d\x17\x15\xb9B\x0e\x1b'
p2895
bsVmobile
p2896
V18826248671
p2897
sVmin_cost_to_deliver
p2898
I0
sVdelivery_price
p2899
I100
sVimage_id
p2900
g1
(g2
g3
Ntp2901
Rp2902
S'U\x01@\xacw\x8d\x17\x15\xb9B\r\xfd'
p2903
bsVopen_hour
p2904
(lp2905
I0
aI86400
asVlocation
p2906
(lp2907
F113.457049
aF23.259602
asVaddress
p2908
V\u5e7f\u4e1c\u7701\u5e7f\u5dde\u5e02\u767d\u4e91\u533a\u5e7f\u6cb3\u9ad8\u901f\u516c\u8def
p2909
sVcreated_time
p2910
L1426145473941L
sV_id
p2911
g2885
sVtype
p2912
Vcvs
p2913
ssg1
(g2
g3
Ntp2914
Rp2915
S'U\x01@\xc1w\x8d\x17\x15\xb9B\x12W'
p2916
b(dp2917
Vstatus
p2918
Vopen
p2919
sVname
p2920
V\u54c8\u5c14\u6ee8\u5546\u4e1a\u5927\u5b66\u4e3b\u6821\u533a
p2921
sVschool_district
p2922
g1
(g2
g3
Ntp2923
Rp2924
S'U\x01@\xbew\x8d\x17\x15\xb9B\x0e\xe1'
p2925
bsVmobile
p2926
V13633624170
p2927
sVmin_cost_to_deliver
p2928
I0
sVdelivery_price
p2929
I100
sVimage_id
p2930
g1
(g2
g3
Ntp2931
Rp2932
S'U\x01@\xacw\x8d\x17\x15\xb9B\r\xfd'
p2933
bsVopen_hour
p2934
(lp2935
I0
aI86400
asVlocation
p2936
(lp2937
F126.56438
aF45.818095
asVaddress
p2938
V\u9ed1\u9f99\u6c5f\u7701\u54c8\u5c14\u6ee8\u5e02\u677e\u5317\u533a\u864e\u56ed\u8def
p2939
sVcreated_time
p2940
L1426145473815L
sV_id
p2941
g2915
sVtype
p2942
Vcvs
p2943
ssg1
(g2
g3
Ntp2944
Rp2945
S'U\x01@\xc1w\x8d\x17\x15\xb9B\x0f\xb7'
p2946
b(dp2947
Vstatus
p2948
Vopen
p2949
sVname
p2950
V\u5c71\u897f\u5de5\u7a0b\u6280\u672f\u5b66\u9662\u4e3b\u6821\u533a
p2951
sVschool_district
p2952
g1
(g2
g3
Ntp2953
Rp2954
S'U\x01@\xc1w\x8d\x17\x15\xb9B\x0f\n'
p2955
bsVmobile
p2956
V18435390079
p2957
sVmin_cost_to_deliver
p2958
I0
sVdelivery_price
p2959
I100
sVimage_id
p2960
g1
(g2
g3
Ntp2961
Rp2962
S'U\x01@\xacw\x8d\x17\x15\xb9B\r\xfd'
p2963
bsVopen_hour
p2964
(lp2965
I0
aI86400
asVlocation
p2966
(lp2967
F113.608609
aF37.879287
asVaddress
p2968
V\u5c71\u897f\u7701\u9633\u6cc9\u5e02\u90ca\u533a\u70df\u53f0\u8def
p2969
sVcreated_time
p2970
L1426145473607L
sV_id
p2971
g2945
sVtype
p2972
Vcvs
p2973
ssg1
(g2
g3
Ntp2974
Rp2975
S'U\x01@\xc2w\x8d\x17\x15\xb9B\x15\x1f'
p2976
b(dp2977
Vstatus
p2978
Vopen
p2979
sVname
p2980
V\u6e56\u5357\u8f6f\u4ef6\u804c\u4e1a\u5b66\u9662\u4e3b\u6821\u533a
p2981
sVschool_district
p2982
g1
(g2
g3
Ntp2983
Rp2984
S'U\x01@\xb2w\x8d\x17\x15\xb9B\x0eD'
p2985
bsVmobile
p2986
V13574068358
p2987
sVmin_cost_to_deliver
p2988
I0
sVdelivery_price
p2989
I100
sVimage_id
p2990
g1
(g2
g3
Ntp2991
Rp2992
S'U\x01@\xacw\x8d\x17\x15\xb9B\r\xfd'
p2993
bsVopen_hour
p2994
(lp2995
I0
aI86400
asVlocation
p2996
(lp2997
F112.933362
aF27.905965
asVaddress
p2998
V\u6e56\u5357\u7701\u6e58\u6f6d\u5e02\u6e58\u6f6d\u53bf\u4e8c\u73af\u7ebf
p2999
sVcreated_time
p3000
L1426145474048L
sV_id
p3001
g2975
sVtype
p3002
Vcvs
p3003
ssg1
(g2
g3
Ntp3004
Rp3005
S'U\x01@\xc2w\x8d\x17\x15\xb9B\x16\xd7'
p3006
b(dp3007
Vstatus
p3008
Vopen
p3009
sVname
p3010
V\u5510\u5c71\u5e08\u8303\u5b66\u9662\u4e3b\u6821\u533a
p3011
sVschool_district
p3012
g1
(g2
g3
Ntp3013
Rp3014
S'U\x01@\xb7w\x8d\x17\x15\xb9B\x0e\x8c'
p3015
bsVmobile
p3016
V18631505774
p3017
sVmin_cost_to_deliver
p3018
I0
sVdelivery_price
p3019
I100
sVimage_id
p3020
g1
(g2
g3
Ntp3021
Rp3022
S'U\x01@\xacw\x8d\x17\x15\xb9B\r\xfd'
p3023
bsVopen_hour
p3024
(lp3025
I0
aI86400
asVlocation
p3026
(lp3027
F118.174911
aF39.674064
asVaddress
p3028
V\u6cb3\u5317\u7701\u5510\u5c71\u5e02\u8def\u5317\u533a\u4e30\u6e90\u9053
p3029
sVcreated_time
p3030
L1426145474196L
sV_id
p3031
g3005
sVtype
p3032
Vcvs
p3033
ssg1
(g2
g3
Ntp3034
Rp3035
S'U\x01@\xc1w\x8d\x17\x15\xb9B\x12_'
p3036
b(dp3037
Vstatus
p3038
Vopen
p3039
sVname
p3040
V\u54c8\u5c14\u6ee8\u5e08\u8303\u5927\u5b66\u677e\u5317\u6821\u533a
p3041
sVschool_district
p3042
g1
(g2
g3
Ntp3043
Rp3044
S'U\x01@\xbew\x8d\x17\x15\xb9B\x0e\xe2'
p3045
bsVmobile
p3046
V13895891428
p3047
sVmin_cost_to_deliver
p3048
I0
sVdelivery_price
p3049
I100
sVimage_id
p3050
g1
(g2
g3
Ntp3051
Rp3052
S'U\x01@\xacw\x8d\x17\x15\xb9B\r\xfd'
p3053
bsVopen_hour
p3054
(lp3055
I0
aI86400
asVlocation
p3056
(lp3057
F126.559392
aF45.86338
asVaddress
p3058
V\u9ed1\u9f99\u6c5f\u7701\u54c8\u5c14\u6ee8\u5e02\u547c\u5170\u533a\u54c8\u5c14\u6ee8\u7ed5\u57ce\u9ad8\u901f\u516c\u8def
p3059
sVcreated_time
p3060
L1426145473817L
sV_id
p3061
g3035
sVtype
p3062
Vcvs
p3063
ssg1
(g2
g3
Ntp3064
Rp3065
S'U\x01@\xc1w\x8d\x17\x15\xb9B\x0f\xbf'
p3066
b(dp3067
Vstatus
p3068
Vopen
p3069
sVname
p3070
V\u6cb3\u5317\u5916\u56fd\u8bed\u5b66\u9662\u4e3b\u6821\u533a
p3071
sVschool_district
p3072
g1
(g2
g3
Ntp3073
Rp3074
S'U\x01@\xc1w\x8d\x17\x15\xb9B\x0f\x0b'
p3075
bsVmobile
p3076
V15227833109
p3077
sVmin_cost_to_deliver
p3078
I0
sVdelivery_price
p3079
I100
sVimage_id
p3080
g1
(g2
g3
Ntp3081
Rp3082
S'U\x01@\xacw\x8d\x17\x15\xb9B\r\xfd'
p3083
bsVopen_hour
p3084
(lp3085
I0
aI86400
asVlocation
p3086
(lp3087
F114.45561
aF37.99525
asVaddress
p3088
V\u6cb3\u5317\u7701\u77f3\u5bb6\u5e84\u5e02\u9e7f\u6cc9\u5e02s101
p3089
sVcreated_time
p3090
L1426145473609L
sV_id
p3091
g3065
sVtype
p3092
Vcvs
p3093
ssg1
(g2
g3
Ntp3094
Rp3095
S'U\x01@\xc2w\x8d\x17\x15\xb9B\x15\x17'
p3096
b(dp3097
Vstatus
p3098
Vopen
p3099
sVname
p3100
V\u6e56\u5357\u519c\u4e1a\u5927\u5b66\u4e3b\u6821\u533a
p3101
sVschool_district
p3102
g1
(g2
g3
Ntp3103
Rp3104
S'U\x01@\xb2w\x8d\x17\x15\xb9B\x0eC'
p3105
bsVmobile
p3106
V18373169147
p3107
sVmin_cost_to_deliver
p3108
I0
sVdelivery_price
p3109
I100
sVimage_id
p3110
g1
(g2
g3
Ntp3111
Rp3112
S'U\x01@\xacw\x8d\x17\x15\xb9B\r\xfd'
p3113
bsVopen_hour
p3114
(lp3115
I0
aI86400
asVlocation
p3116
(lp3117
F113.084206
aF28.182059
asVaddress
p3118
V\u6e56\u5357\u7701\u957f\u6c99\u5e02\u8299\u84c9\u533a\u6842\u82b1\u5927\u9053
p3119
sVcreated_time
p3120
L1426145474046L
sV_id
p3121
g3095
sVtype
p3122
Vcvs
p3123
ssg1
(g2
g3
Ntp3124
Rp3125
S'U\x01@\xc2w\x8d\x17\x15\xb9B\x16\xcf'
p3126
b(dp3127
Vstatus
p3128
Vopen
p3129
sVname
p3130
V\u592a\u539f\u5e08\u8303\u5b66\u9662\u65b0\u6821\u533a
p3131
sVschool_district
p3132
g1
(g2
g3
Ntp3133
Rp3134
S'U\x01@\xb7w\x8d\x17\x15\xb9B\x0e\x8b'
p3135
bsVmobile
p3136
V18235108542
p3137
sVmin_cost_to_deliver
p3138
I0
sVdelivery_price
p3139
I100
sVimage_id
p3140
g1
(g2
g3
Ntp3141
Rp3142
S'U\x01@\xacw\x8d\x17\x15\xb9B\r\xfd'
p3143
bsVopen_hour
p3144
(lp3145
I0
aI86400
asVlocation
p3146
(lp3147
F112.70831
aF37.749578
asVaddress
p3148
V\u5c71\u897f\u7701\u664b\u4e2d\u5e02\u6986\u6b21\u533a
p3149
sVcreated_time
p3150
L1426145474194L
sV_id
p3151
g3125
sVtype
p3152
Vcvs
p3153
ssg1
(g2
g3
Ntp3154
Rp3155
S'U\x01@\xc1w\x8d\x17\x15\xb9B\x12\xf7'
p3156
b(dp3157
Vstatus
p3158
Vopen
p3159
sVname
p3160
V\u5b89\u5fbd\u5de5\u4e1a\u5927\u5b66\u4e1c\u6821\u533a
p3161
sVschool_district
p3162
g1
(g2
g3
Ntp3163
Rp3164
S'U\x01@\xadw\x8d\x17\x15\xb9B\r\xff'
p3165
bsVmobile
p3166
V18055504263
p3167
sVmin_cost_to_deliver
p3168
I0
sVdelivery_price
p3169
I100
sVimage_id
p3170
g1
(g2
g3
Ntp3171
Rp3172
S'U\x01@\xacw\x8d\x17\x15\xb9B\r\xfd'
p3173
bsVopen_hour
p3174
(lp3175
I0
aI86400
asVlocation
p3176
(lp3177
F118.51071
aF31.692956
asVaddress
p3178
V\u5b89\u5fbd\u7701\u9a6c\u978d\u5c71\u5e02\u82b1\u5c71\u533a\u897f\u82d1\u8def
p3179
sVcreated_time
p3180
L1426145473867L
sV_id
p3181
g3155
sVtype
p3182
Vcvs
p3183
ssg1
(g2
g3
Ntp3184
Rp3185
S'U\x01@\xc1w\x8d\x17\x15\xb9B\x12G'
p3186
b(dp3187
Vstatus
p3188
Vopen
p3189
sVname
p3190
V\u8fbd\u4e1c\u5b66\u9662 \u4e34\u6c5f\u6821\u533a
p3191
sVschool_district
p3192
g1
(g2
g3
Ntp3193
Rp3194
S'U\x01@\xbdw\x8d\x17\x15\xb9B\x0e\xdf'
p3195
bsVmobile
p3196
V18524151781
p3197
sVmin_cost_to_deliver
p3198
I0
sVdelivery_price
p3199
I100
sVimage_id
p3200
g1
(g2
g3
Ntp3201
Rp3202
S'U\x01@\xacw\x8d\x17\x15\xb9B\r\xfd'
p3203
bsVopen_hour
p3204
(lp3205
I0
aI86400
asVlocation
p3206
(lp3207
F124.364164
aF40.176676
asVaddress
p3208
V\u8fbd\u5b81\u7701\u4e39\u4e1c\u5e02\u5143\u5b9d\u533ag201
p3209
sVcreated_time
p3210
L1426145473811L
sV_id
p3211
g3185
sVtype
p3212
Vcvs
p3213
ssg1
(g2
g3
Ntp3214
Rp3215
S'U\x01@\xc1w\x8d\x17\x15\xb9B\x0f\xa7'
p3216
b(dp3217
Vstatus
p3218
Vopen
p3219
sVname
p3220
V\u592a\u539f\u5e08\u8303\u5b66\u9662\u65b0\u6821\u533a
p3221
sVschool_district
p3222
g1
(g2
g3
Ntp3223
Rp3224
S'U\x01@\xc1w\x8d\x17\x15\xb9B\x0f\x08'
p3225
bsVmobile
p3226
V18235108542
p3227
sVmin_cost_to_deliver
p3228
I0
sVdelivery_price
p3229
I100
sVimage_id
p3230
g1
(g2
g3
Ntp3231
Rp3232
S'U\x01@\xacw\x8d\x17\x15\xb9B\r\xfd'
p3233
bsVopen_hour
p3234
(lp3235
I0
aI86400
asVlocation
p3236
(lp3237
F112.714437
aF37.750159
asVaddress
p3238
V\u5c71\u897f\u7701\u664b\u4e2d\u5e02\u6986\u6b21\u533a
p3239
sVcreated_time
p3240
L1426145473599L
sV_id
p3241
g3215
sVtype
p3242
Vcvs
p3243
ssg1
(g2
g3
Ntp3244
Rp3245
S'U\x01@\xc2w\x8d\x17\x15\xb9B\x15\x0f'
p3246
b(dp3247
Vstatus
p3248
Vopen
p3249
sVname
p3250
V\u6e56\u5357\u79d1\u6280\u5927\u5b66\u5317\u6821\u533a
p3251
sVschool_district
p3252
g1
(g2
g3
Ntp3253
Rp3254
S'U\x01@\xb2w\x8d\x17\x15\xb9B\x0eB'
p3255
bsVmobile
p3256
V15580182360
p3257
sVmin_cost_to_deliver
p3258
I0
sVdelivery_price
p3259
I100
sVimage_id
p3260
g1
(g2
g3
Ntp3261
Rp3262
S'U\x01@\xacw\x8d\x17\x15\xb9B\r\xfd'
p3263
bsVopen_hour
p3264
(lp3265
I0
aI86400
asVlocation
p3266
(lp3267
F112.917952
aF27.900573
asVaddress
p3268
V\u6e56\u5357\u7701\u6e58\u6f6d\u5e02\u6e58\u6f6d\u53bf\u4e8c\u73af\u7ebf
p3269
sVcreated_time
p3270
L1426145474044L
sV_id
p3271
g3245
sVtype
p3272
Vcvs
p3273
ssg1
(g2
g3
Ntp3274
Rp3275
S'U\x01@\xc2w\x8d\x17\x15\xb9B\x16\xc7'
p3276
b(dp3277
Vstatus
p3278
Vopen
p3279
sVname
p3280
V\u592a\u539f\u7406\u5de5\u5927\u5b66\u4e3b\u6821\u533a
p3281
sVschool_district
p3282
g1
(g2
g3
Ntp3283
Rp3284
S'U\x01@\xb7w\x8d\x17\x15\xb9B\x0e\x8a'
p3285
bsVmobile
p3286
V15735181928
p3287
sVmin_cost_to_deliver
p3288
I0
sVdelivery_price
p3289
I100
sVimage_id
p3290
g1
(g2
g3
Ntp3291
Rp3292
S'U\x01@\xacw\x8d\x17\x15\xb9B\r\xfd'
p3293
bsVopen_hour
p3294
(lp3295
I0
aI86400
asVlocation
p3296
(lp3297
F112.522962
aF37.861823
asVaddress
p3298
V\u5c71\u897f\u7701\u592a\u539f\u5e02\u4e07\u67cf\u6797\u533a\u79fb\u6751\u5317\u8857
p3299
sVcreated_time
p3300
L1426145474192L
sV_id
p3301
g3275
sVtype
p3302
Vcvs
p3303
ssg1
(g2
g3
Ntp3304
Rp3305
S'U\x01@\xc2w\x8d\x17\x15\xb9B\x17\x87'
p3306
b(dp3307
Vstatus
p3308
Vopen
p3309
sVname
p3310
V\u897f\u5b89\u533b\u5b66\u9662\u4e3b\u6821\u533a
p3311
sVschool_district
p3312
g1
(g2
g3
Ntp3313
Rp3314
S'U\x01@\xb9w\x8d\x17\x15\xb9B\x0e\xa2'
p3315
bsVmobile
p3316
V18700824624
p3317
sVmin_cost_to_deliver
p3318
I0
sVdelivery_price
p3319
I100
sVimage_id
p3320
g1
(g2
g3
Ntp3321
Rp3322
S'U\x01@\xacw\x8d\x17\x15\xb9B\r\xfd'
p3323
bsVopen_hour
p3324
(lp3325
I0
aI86400
asVlocation
p3326
(lp3327
F108.993872
aF34.384551
asVaddress
p3328
V\u9655\u897f\u7701\u897f\u5b89\u5e02\u672a\u592e\u533a\u592a\u534e\u5317\u8def
p3329
sVcreated_time
p3330
L1426145474251L
sV_id
p3331
g3305
sVtype
p3332
Vcvs
p3333
ssg1
(g2
g3
Ntp3334
Rp3335
S'U\x01@\xc1w\x8d\x17\x15\xb9B\x0f\xaf'
p3336
b(dp3337
Vstatus
p3338
Vopen
p3339
sVname
p3340
V\u5c71\u897f\u8b66\u5b98\u9ad8\u7b49\u4e13\u79d1\u5b66\u6821\u4e3b\u6821\u533a
p3341
sVschool_district
p3342
g1
(g2
g3
Ntp3343
Rp3344
S'U\x01@\xc1w\x8d\x17\x15\xb9B\x0f\t'
p3345
bsVmobile
p3346
V15035896258
p3347
sVmin_cost_to_deliver
p3348
I0
sVdelivery_price
p3349
I100
sVimage_id
p3350
g1
(g2
g3
Ntp3351
Rp3352
S'U\x01@\xacw\x8d\x17\x15\xb9B\r\xfd'
p3353
bsVopen_hour
p3354
(lp3355
I0
aI86400
asVlocation
p3356
(lp3357
F112.522445
aF37.827752
asVaddress
p3358
V\u5c71\u897f\u7701\u592a\u539f\u5e02\u4e07\u67cf\u6797\u533a\u957f\u987a\u8857
p3359
sVcreated_time
p3360
L1426145473601L
sV_id
p3361
g3335
sVtype
p3362
Vcvs
p3363
ssg1
(g2
g3
Ntp3364
Rp3365
S'U\x01@\xc2w\x8d\x17\x15\xb9B\x15\x07'
p3366
b(dp3367
Vstatus
p3368
Vopen
p3369
sVname
p3370
V\u6e56\u5317\u5e08\u8303\u5b66\u9662\u4e3b\u6821\u533a
p3371
sVschool_district
p3372
g1
(g2
g3
Ntp3373
Rp3374
S'U\x01@\xb2w\x8d\x17\x15\xb9B\x0eA'
p3375
bsVmobile
p3376
V18871404021
p3377
sVmin_cost_to_deliver
p3378
I0
sVdelivery_price
p3379
I100
sVimage_id
p3380
g1
(g2
g3
Ntp3381
Rp3382
S'U\x01@\xacw\x8d\x17\x15\xb9B\r\xfd'
p3383
bsVopen_hour
p3384
(lp3385
I0
aI86400
asVlocation
p3386
(lp3387
F115.070541
aF30.226942
asVaddress
p3388
V\u6e56\u5317\u7701\u9ec4\u77f3\u5e02\u9ec4\u77f3\u6e2f\u533a\u78c1\u6e56\u8def31-2
p3389
sVcreated_time
p3390
L1426145474042L
sV_id
p3391
g3365
sVtype
p3392
Vcvs
p3393
ssg1
(g2
g3
Ntp3394
Rp3395
S'U\x01@\xc2w\x8d\x17\x15\xb9B\x16\xff'
p3396
b(dp3397
Vstatus
p3398
Vopen
p3399
sVname
p3400
V\u5a01\u6d77\u804c\u4e1a\u5b66\u9662\u4e3b\u6821\u533a
p3401
sVschool_district
p3402
g1
(g2
g3
Ntp3403
Rp3404
S'U\x01@\xb8w\x8d\x17\x15\xb9B\x0e\x91'
p3405
bsVmobile
p3406
V17705433789
p3407
sVmin_cost_to_deliver
p3408
I0
sVdelivery_price
p3409
I100
sVimage_id
p3410
g1
(g2
g3
Ntp3411
Rp3412
S'U\x01@\xacw\x8d\x17\x15\xb9B\r\xfd'
p3413
bsVopen_hour
p3414
(lp3415
I0
aI86400
asVlocation
p3416
(lp3417
F121.943048
aF37.446942
asVaddress
p3418
V\u5c71\u4e1c\u7701\u5a01\u6d77\u5e02\u73af\u7fe0\u533a\u65b0\u521d\u5f20\u8def
p3419
sVcreated_time
p3420
L1426145474208L
sV_id
p3421
g3395
sVtype
p3422
Vcvs
p3423
ssg1
(g2
g3
Ntp3424
Rp3425
S'U\x01@\xc1w\x8d\x17\x15\xb9B\x12w'
p3426
b(dp3427
Vstatus
p3428
Vopen
p3429
sVname
p3430
V\u54c8\u5c14\u6ee8\u533b\u79d1\u5927\u5b66\u5927\u5e86\u6821\u533a
p3431
sVschool_district
p3432
g1
(g2
g3
Ntp3433
Rp3434
S'U\x01@\xbew\x8d\x17\x15\xb9B\x0e\xe5'
p3435
bsVmobile
p3436
V13352509584
p3437
sVmin_cost_to_deliver
p3438
I0
sVdelivery_price
p3439
I100
sVimage_id
p3440
g1
(g2
g3
Ntp3441
Rp3442
S'U\x01@\xacw\x8d\x17\x15\xb9B\r\xfd'
p3443
bsVopen_hour
p3444
(lp3445
I0
aI86400
asVlocation
p3446
(lp3447
F126.619834
aF45.701003
asVaddress
p3448
V\u9ed1\u9f99\u6c5f\u7701\u54c8\u5c14\u6ee8\u5e02\u5357\u5c97\u533a\u5b66\u5e9c\u8def
p3449
sVcreated_time
p3450
L1426145473828L
sV_id
p3451
g3425
sVtype
p3452
Vcvs
p3453
ssg1
(g2
g3
Ntp3454
Rp3455
S'U\x01@\xc1w\x8d\x17\x15\xb9B\x0f\x97'
p3456
b(dp3457
Vstatus
p3458
Vopen
p3459
sVname
p3460
V\u5317\u4eac\u4ea4\u901a\u8fd0\u8f93\u804c\u4e1a\u5b66\u9662\u4e09\u65d7\u6821\u533a
p3461
sVschool_district
p3462
g1
(g2
g3
Ntp3463
Rp3464
S'U\x01@\xc0w\x8d\x17\x15\xb9B\x0f\x06'
p3465
bsVmobile
p3466
V18910075447
p3467
sVmin_cost_to_deliver
p3468
I0
sVdelivery_price
p3469
I100
sVimage_id
p3470
g1
(g2
g3
Ntp3471
Rp3472
S'U\x01@\xacw\x8d\x17\x15\xb9B\r\xfd'
p3473
bsVopen_hour
p3474
(lp3475
I0
aI86400
asVlocation
p3476
(lp3477
F116.340256
aF40.050304
asVaddress
p3478
V\u897f\u4e09\u65d7\u60a6\u79c0\u8def80\u53f7
p3479
sVcreated_time
p3480
L1426145473595L
sV_id
p3481
g3455
sVtype
p3482
Vcvs
p3483
ssg1
(g2
g3
Ntp3484
Rp3485
S'U\x01@\xc2w\x8d\x17\x15\xb9B\x15?'
p3486
b(dp3487
Vstatus
p3488
Vopen
p3489
sVname
p3490
V\u534e\u5357\u519c\u4e1a\u5927\u5b66\u542f\u6797\u6821\u533a
p3491
sVschool_district
p3492
g1
(g2
g3
Ntp3493
Rp3494
S'U\x01@\xb2w\x8d\x17\x15\xb9B\x0eI'
p3495
bsVmobile
p3496
V18819259812
p3497
sVmin_cost_to_deliver
p3498
I0
sVdelivery_price
p3499
I100
sVimage_id
p3500
g1
(g2
g3
Ntp3501
Rp3502
S'U\x01@\xacw\x8d\x17\x15\xb9B\r\xfd'
p3503
bsVopen_hour
p3504
(lp3505
I0
aI86400
asVlocation
p3506
(lp3507
F113.368177
aF23.16008
asVaddress
p3508
V\u5e7f\u4e1c\u7701\u5e7f\u5dde\u5e02\u5929\u6cb3\u533as303
p3509
sVcreated_time
p3510
L1426145474061L
sV_id
p3511
g3485
sVtype
p3512
Vcvs
p3513
ssg1
(g2
g3
Ntp3514
Rp3515
S'U\x01@\xc2w\x8d\x17\x15\xb9B\x16\xf7'
p3516
b(dp3517
Vstatus
p3518
Vopen
p3519
sVname
p3520
V\u5929\u6d25\u5929\u72ee\u5b66\u9662\u4e3b\u6821\u533a
p3521
sVschool_district
p3522
g1
(g2
g3
Ntp3523
Rp3524
S'U\x01@\xb8w\x8d\x17\x15\xb9B\x0e\x90'
p3525
bsVmobile
p3526
V13752153218
p3527
sVmin_cost_to_deliver
p3528
I0
sVdelivery_price
p3529
I100
sVimage_id
p3530
g1
(g2
g3
Ntp3531
Rp3532
S'U\x01@\xacw\x8d\x17\x15\xb9B\r\xfd'
p3533
bsVopen_hour
p3534
(lp3535
I0
aI86400
asVlocation
p3536
(lp3537
F117.072715
aF39.401913
asVaddress
p3538
V\u5929\u6d25\u5e02\u6b66\u6e05\u533a\u6cc9\u5dde\u5317\u8def21\u53f7
p3539
sVcreated_time
p3540
L1426145474206L
sV_id
p3541
g3515
sVtype
p3542
Vcvs
p3543
ssg1
(g2
g3
Ntp3544
Rp3545
S'U\x01@\xc1w\x8d\x17\x15\xb9B\x12\x7f'
p3546
b(dp3547
Vstatus
p3548
Vopen
p3549
sVname
p3550
V\u6cb3\u5357\u57ce\u5efa\u5b66\u9662\u4e3b\u6821\u533a
p3551
sVschool_district
p3552
g1
(g2
g3
Ntp3553
Rp3554
S'U\x01@\xbew\x8d\x17\x15\xb9B\x0e\xe6'
p3555
bsVmobile
p3556
V13243188331
p3557
sVmin_cost_to_deliver
p3558
I0
sVdelivery_price
p3559
I100
sVimage_id
p3560
g1
(g2
g3
Ntp3561
Rp3562
S'U\x01@\xacw\x8d\x17\x15\xb9B\r\xfd'
p3563
bsVopen_hour
p3564
(lp3565
I0
aI86400
asVlocation
p3566
(lp3567
F113.189303
aF33.769568
asVaddress
p3568
V\u6cb3\u5357\u7701\u5e73\u9876\u5c71\u5e02\u65b0\u534e\u533a\u957f\u5b89\u5927\u9053
p3569
sVcreated_time
p3570
L1426145473830L
sV_id
p3571
g3545
sVtype
p3572
Vcvs
p3573
ssg1
(g2
g3
Ntp3574
Rp3575
S'U\x01@\xc1w\x8d\x17\x15\xb9B\x0f\x9f'
p3576
b(dp3577
Vstatus
p3578
Vopen
p3579
sVname
p3580
V\u5317\u4eac\u4ea4\u901a\u804c\u4e1a\u6280\u672f\u5b66\u9662
p3581
sVschool_district
p3582
g1
(g2
g3
Ntp3583
Rp3584
S'U\x01@\xc0w\x8d\x17\x15\xb9B\x0f\x07'
p3585
bsVmobile
p3586
V13911271054
p3587
sVmin_cost_to_deliver
p3588
I0
sVdelivery_price
p3589
I100
sVimage_id
p3590
g1
(g2
g3
Ntp3591
Rp3592
S'U\x01@\xacw\x8d\x17\x15\xb9B\r\xfd'
p3593
bsVopen_hour
p3594
(lp3595
I0
aI86400
asVlocation
p3596
(lp3597
F116.204281
aF40.228661
asVaddress
p3598
V\u5317\u4eac\u5e02\u660c\u5e73\u533ag6
p3599
sVcreated_time
p3600
L1426145473597L
sV_id
p3601
g3575
sVtype
p3602
Vcvs
p3603
ssg1
(g2
g3
Ntp3604
Rp3605
S'U\x01@\xc2w\x8d\x17\x15\xb9B\x157'
p3606
b(dp3607
Vstatus
p3608
Vopen
p3609
sVname
p3610
V\u6e56\u5357\u4fe1\u606f\u804c\u4e1a\u6280\u672f\u5b66\u9662\u4e3b\u6821\u533a
p3611
sVschool_district
p3612
g1
(g2
g3
Ntp3613
Rp3614
S'U\x01@\xb2w\x8d\x17\x15\xb9B\x0eG'
p3615
bsVmobile
p3616
V15116422939
p3617
sVmin_cost_to_deliver
p3618
I0
sVdelivery_price
p3619
I100
sVimage_id
p3620
g1
(g2
g3
Ntp3621
Rp3622
S'U\x01@\xacw\x8d\x17\x15\xb9B\r\xfd'
p3623
bsVopen_hour
p3624
(lp3625
I0
aI86400
asVlocation
p3626
(lp3627
F112.817677
aF28.341074
asVaddress
p3628
V\u6e56\u5357\u7701\u957f\u6c99\u5e02\u671b\u57ce\u533a\u55bb\u5bb6\u5761\u8def
p3629
sVcreated_time
p3630
L1426145474058L
sV_id
p3631
g3605
sVtype
p3632
Vcvs
p3633
ssg1
(g2
g3
Ntp3634
Rp3635
S'U\x01@\xc2w\x8d\x17\x15\xb9B\x16\xef'
p3636
b(dp3637
Vstatus
p3638
Vopen
p3639
sVname
p3640
V\u5929\u6d25\u5546\u4e1a\u5927\u5b66\u4e3b\u6821\u533a
p3641
sVschool_district
p3642
g1
(g2
g3
Ntp3643
Rp3644
S'U\x01@\xb8w\x8d\x17\x15\xb9B\x0e\x8f'
p3645
bsVmobile
p3646
V13752743027
p3647
sVmin_cost_to_deliver
p3648
I0
sVdelivery_price
p3649
I100
sVimage_id
p3650
g1
(g2
g3
Ntp3651
Rp3652
S'U\x01@\xacw\x8d\x17\x15\xb9B\r\xfd'
p3653
bsVopen_hour
p3654
(lp3655
I0
aI86400
asVlocation
p3656
(lp3657
F117.128355
aF39.182323
asVaddress
p3658
V\u5929\u6d25\u5e02\u5317\u8fb0\u533a\u5b50\u7259\u6cb3\u5357\u8def
p3659
sVcreated_time
p3660
L1426145474203L
sV_id
p3661
g3635
sVtype
p3662
Vcvs
p3663
ssg1
(g2
g3
Ntp3664
Rp3665
S'U\x01@\xc1w\x8d\x17\x15\xb9B\x12g'
p3666
b(dp3667
Vstatus
p3668
Vopen
p3669
sVname
p3670
V\u8fdc\u4e1c\u7406\u5de5\u5b66\u9662\u4e3b\u6821\u533a
p3671
sVschool_district
p3672
g1
(g2
g3
Ntp3673
Rp3674
S'U\x01@\xbew\x8d\x17\x15\xb9B\x0e\xe3'
p3675
bsVmobile
p3676
V15765586542
p3677
sVmin_cost_to_deliver
p3678
I0
sVdelivery_price
p3679
I100
sVimage_id
p3680
g1
(g2
g3
Ntp3681
Rp3682
S'U\x01@\xacw\x8d\x17\x15\xb9B\r\xfd'
p3683
bsVopen_hour
p3684
(lp3685
I0
aI86400
asVlocation
p3686
(lp3687
F126.538746
aF45.87407
asVaddress
p3688
V\u9ed1\u9f99\u6c5f\u7701\u54c8\u5c14\u6ee8\u5e02\u547c\u5170\u533a\u6c42\u77e5\u8def
p3689
sVcreated_time
p3690
L1426145473823L
sV_id
p3691
g3665
sVtype
p3692
Vcvs
p3693
ssg1
(g2
g3
Ntp3694
Rp3695
S'U\x01@\xc1w\x8d\x17\x15\xb9B\x0f\x87'
p3696
b(dp3697
Vstatus
p3698
Vopen
p3699
sVname
p3700
V\u4e91\u5357\u6c11\u65cf\u5927\u5b66\u5448\u8d21\u6821\u533a
p3701
sVschool_district
p3702
g1
(g2
g3
Ntp3703
Rp3704
S'U\x01@\xc0w\x8d\x17\x15\xb9B\x0f\x04'
p3705
bsVmobile
p3706
V18088013891
p3707
sVmin_cost_to_deliver
p3708
I0
sVdelivery_price
p3709
I100
sVimage_id
p3710
g1
(g2
g3
Ntp3711
Rp3712
S'U\x01@\xacw\x8d\x17\x15\xb9B\r\xfd'
p3713
bsVopen_hour
p3714
(lp3715
I0
aI86400
asVlocation
p3716
(lp3717
F102.858118
aF24.845009
asVaddress
p3718
V\u4e91\u5357\u7701\u6606\u660e\u5e02\u5448\u8d21\u533a\u4e91\u5cad\u8def
p3719
sVcreated_time
p3720
L1426145473590L
sV_id
p3721
g3695
sVtype
p3722
Vcvs
p3723
ssg1
(g2
g3
Ntp3724
Rp3725
S'U\x01@\xc2w\x8d\x17\x15\xb9B\x15/'
p3726
b(dp3727
Vstatus
p3728
Vopen
p3729
sVname
p3730
V\u6e56\u5357\u5546\u5b66\u9662\u5317\u6d25\u5b66\u9662\u4e3b\u6821\u533a
p3731
sVschool_district
p3732
g1
(g2
g3
Ntp3733
Rp3734
S'U\x01@\xb2w\x8d\x17\x15\xb9B\x0eF'
p3735
bsVmobile
p3736
V18435165079
p3737
sVmin_cost_to_deliver
p3738
I0
sVdelivery_price
p3739
I100
sVimage_id
p3740
g1
(g2
g3
Ntp3741
Rp3742
S'U\x01@\xacw\x8d\x17\x15\xb9B\r\xfd'
p3743
bsVopen_hour
p3744
(lp3745
I0
aI86400
asVlocation
p3746
(lp3747
F112.731313
aF37.748661
asVaddress
p3748
V\u5c71\u897f\u7701\u664b\u4e2d\u5e02\u6986\u6b21\u533a
p3749
sVcreated_time
p3750
L1426145474053L
sV_id
p3751
g3725
sVtype
p3752
Vcvs
p3753
ssg1
(g2
g3
Ntp3754
Rp3755
S'U\x01@\xc2w\x8d\x17\x15\xb9B\x16\xe7'
p3756
b(dp3757
Vstatus
p3758
Vopen
p3759
sVname
p3760
V\u5929\u6d25\u7406\u5de5\u5927\u5b66\u4e3b\u6821\u533a
p3761
sVschool_district
p3762
g1
(g2
g3
Ntp3763
Rp3764
S'U\x01@\xb7w\x8d\x17\x15\xb9B\x0e\x8e'
p3765
bsVmobile
p3766
V15222161013
p3767
sVmin_cost_to_deliver
p3768
I0
sVdelivery_price
p3769
I100
sVimage_id
p3770
g1
(g2
g3
Ntp3771
Rp3772
S'U\x01@\xacw\x8d\x17\x15\xb9B\r\xfd'
p3773
bsVopen_hour
p3774
(lp3775
I0
aI86400
asVlocation
p3776
(lp3777
F117.138998
aF39.061666
asVaddress
p3778
V\u5929\u6d25\u5e02\u897f\u9752\u533a\u4ed8\u6751\u8def
p3779
sVcreated_time
p3780
L1426145474201L
sV_id
p3781
g3755
sVtype
p3782
Vcvs
p3783
ssg1
(g2
g3
Ntp3784
Rp3785
S'U\x01@\xc1w\x8d\x17\x15\xb9B\x12o'
p3786
b(dp3787
Vstatus
p3788
Vopen
p3789
sVname
p3790
V\u4f73\u6728\u65af\u5927\u5b66\u4e3b\u6821\u533a
p3791
sVschool_district
p3792
g1
(g2
g3
Ntp3793
Rp3794
S'U\x01@\xbew\x8d\x17\x15\xb9B\x0e\xe4'
p3795
bsVmobile
p3796
V13163512455
p3797
sVmin_cost_to_deliver
p3798
I0
sVdelivery_price
p3799
I100
sVimage_id
p3800
g1
(g2
g3
Ntp3801
Rp3802
S'U\x01@\xacw\x8d\x17\x15\xb9B\r\xfd'
p3803
bsVopen_hour
p3804
(lp3805
I0
aI86400
asVlocation
p3806
(lp3807
F130.360442
aF46.785962
asVaddress
p3808
V\u9ed1\u9f99\u6c5f\u7701\u4f73\u6728\u65af\u5e02\u4f73\u6728\u65af\u5e02\u5e02\u8f96\u533a\u5e73\u540a\u8857
p3809
sVcreated_time
p3810
L1426145473826L
sV_id
p3811
g3785
sVtype
p3812
Vcvs
p3813
ssg1
(g2
g3
Ntp3814
Rp3815
S'U\x01@\xc1w\x8d\x17\x15\xb9B\x0f\x8f'
p3816
b(dp3817
Vstatus
p3818
Vopen
p3819
sVname
p3820
V\u5317\u4eac\u57ce\u5e02\u5b66\u9662\u822a\u5929\u6210\u6821\u533a
p3821
sVschool_district
p3822
g1
(g2
g3
Ntp3823
Rp3824
S'U\x01@\xc0w\x8d\x17\x15\xb9B\x0f\x05'
p3825
bsVmobile
p3826
V13126569338
p3827
sVmin_cost_to_deliver
p3828
I0
sVdelivery_price
p3829
I100
sVimage_id
p3830
g1
(g2
g3
Ntp3831
Rp3832
S'U\x01@\xacw\x8d\x17\x15\xb9B\r\xfd'
p3833
bsVopen_hour
p3834
(lp3835
I0
aI86400
asVlocation
p3836
(lp3837
F116.253423
aF40.089463
asVaddress
p3838
V\u6d77\u6dc0\u533a\u897f\u5317\u65fa\u9547\u5317\u4eac\u57ce\u5e02\u5b66\u9662\u822a\u5929\u6210\u6821\u533a
p3839
sVcreated_time
p3840
L1426145473592L
sV_id
p3841
g3815
sVtype
p3842
Vcvs
p3843
ssg1
(g2
g3
Ntp3844
Rp3845
S"U\x01@\xc2w\x8d\x17\x15\xb9B\x15'"
p3846
b(dp3847
Vstatus
p3848
Vopen
p3849
sVname
p3850
V\u6e56\u5357\u5546\u5b66\u9662\u5317\u6d25\u5b66\u9662\u4e3b\u6821\u533a
p3851
sVschool_district
p3852
g1
(g2
g3
Ntp3853
Rp3854
S'U\x01@\xb2w\x8d\x17\x15\xb9B\x0eE'
p3855
bsVmobile
p3856
V15116134494
p3857
sVmin_cost_to_deliver
p3858
I0
sVdelivery_price
p3859
I100
sVimage_id
p3860
g1
(g2
g3
Ntp3861
Rp3862
S'U\x01@\xacw\x8d\x17\x15\xb9B\r\xfd'
p3863
bsVopen_hour
p3864
(lp3865
I0
aI86400
asVlocation
p3866
(lp3867
F112.875605
aF28.306487
asVaddress
p3868
V\u6e56\u5357\u7701\u957f\u6c99\u5e02\u671b\u57ce\u533a\u957f\u6c99\u7ed5\u57ce\u9ad8\u901f\u516c\u8def
p3869
sVcreated_time
p3870
L1426145474051L
sV_id
p3871
g3845
sVtype
p3872
Vcvs
p3873
ssg1
(g2
g3
Ntp3874
Rp3875
S'U\x01@\xc2w\x8d\x17\x15\xb9B\x16\x9f'
p3876
b(dp3877
Vstatus
p3878
Vopen
p3879
sVname
p3880
V\u6c88\u9633\u519c\u4e1a\u5927\u5b66\u4e3b\u6821\u533a
p3881
sVschool_district
p3882
g1
(g2
g3
Ntp3883
Rp3884
S'U\x01@\xb7w\x8d\x17\x15\xb9B\x0e\x83'
p3885
bsVmobile
p3886
V15542288510
p3887
sVmin_cost_to_deliver
p3888
I0
sVdelivery_price
p3889
I100
sVimage_id
p3890
g1
(g2
g3
Ntp3891
Rp3892
S'U\x01@\xacw\x8d\x17\x15\xb9B\r\xfd'
p3893
bsVopen_hour
p3894
(lp3895
I0
aI86400
asVlocation
p3896
(lp3897
F123.565442
aF41.822006
asVaddress
p3898
V\u8fbd\u5b81\u7701\u6c88\u9633\u5e02\u4e1c\u9675\u533a\u6c88\u5317\u4e1c\u8def
p3899
sVcreated_time
p3900
L1426145474181L
sV_id
p3901
g3875
sVtype
p3902
Vcvs
p3903
ssg1
(g2
g3
Ntp3904
Rp3905
S'U\x01@\xc1w\x8d\x17\x15\xb9B\x12\x17'
p3906
b(dp3907
Vstatus
p3908
Vopen
p3909
sVname
p3910
V\u5357\u4eac\u90ae\u7535\u5927\u5b66\u901a\u8fbe\u5b66\u9662\u626c\u5dde\u6821\u533a
p3911
sVschool_district
p3912
g1
(g2
g3
Ntp3913
Rp3914
S'U\x01@\xbdw\x8d\x17\x15\xb9B\x0e\xd9'
p3915
bsVmobile
p3916
V13024338552
p3917
sVmin_cost_to_deliver
p3918
I0
sVdelivery_price
p3919
I100
sVimage_id
p3920
g1
(g2
g3
Ntp3921
Rp3922
S'U\x01@\xacw\x8d\x17\x15\xb9B\r\xfd'
p3923
bsVopen_hour
p3924
(lp3925
I0
aI86400
asVlocation
p3926
(lp3927
F119.398684
aF32.331056
asVaddress
p3928
V\u6c5f\u82cf\u7701\u626c\u5dde\u5e02\u9097\u6c5f\u533a\u5409\u5b89\u8def
p3929
sVcreated_time
p3930
L1426145473797L
sV_id
p3931
g3905
sVtype
p3932
Vcvs
p3933
ssg1
(g2
g3
Ntp3934
Rp3935
S'U\x01@\xc1w\x8d\x17\x15\xb9B\x0f\xf7'
p3936
b(dp3937
Vstatus
p3938
Vopen
p3939
sVname
p3940
V\u5409\u9996\u5927\u5b66\u5927\u7530\u6e7e\u6821\u533a
p3941
sVschool_district
p3942
g1
(g2
g3
Ntp3943
Rp3944
S'U\x01@\xb3w\x8d\x17\x15\xb9B\x0eP'
p3945
bsVmobile
p3946
V18797481511
p3947
sVmin_cost_to_deliver
p3948
I0
sVdelivery_price
p3949
I100
sVimage_id
p3950
g1
(g2
g3
Ntp3951
Rp3952
S'U\x01@\xacw\x8d\x17\x15\xb9B\r\xfd'
p3953
bsVopen_hour
p3954
(lp3955
I0
aI86400
asVlocation
p3956
(lp3957
F109.753687
aF28.308766
asVaddress
p3958
V\u6e56\u5357\u7701\u6e58\u897f\u571f\u5bb6\u65cf\u82d7\u65cf\u81ea\u6cbb\u5dde\u5409\u9996\u5e02\u5927\u7530\u8def
p3959
sVcreated_time
p3960
L1426145473625L
sV_id
p3961
g3935
sVtype
p3962
Vcvs
p3963
ssg1
(g2
g3
Ntp3964
Rp3965
S'U\x01@\xc2w\x8d\x17\x15\xb9B\x15_'
p3966
b(dp3967
Vstatus
p3968
Vopen
p3969
sVname
p3970
V\u6dee\u5357\u5e08\u8303\u5b66\u9662\u4e3b\u6821\u533a
p3971
sVschool_district
p3972
g1
(g2
g3
Ntp3973
Rp3974
S'U\x01@\xb3w\x8d\x17\x15\xb9B\x0eN'
p3975
bsVmobile
p3976
V18365208391
p3977
sVmin_cost_to_deliver
p3978
I0
sVdelivery_price
p3979
I100
sVimage_id
p3980
g1
(g2
g3
Ntp3981
Rp3982
S'U\x01@\xacw\x8d\x17\x15\xb9B\r\xfd'
p3983
bsVopen_hour
p3984
(lp3985
I0
aI86400
asVlocation
p3986
(lp3987
F116.96077
aF32.611905
asVaddress
p3988
V\u5b89\u5fbd\u7701\u6dee\u5357\u5e02\u7530\u5bb6\u5eb5\u533a
p3989
sVcreated_time
p3990
L1426145474070L
sV_id
p3991
g3965
sVtype
p3992
Vcvs
p3993
ssg1
(g2
g3
Ntp3994
Rp3995
S'U\x01@\xc2w\x8d\x17\x15\xb9B\x16\x97'
p3996
b(dp3997
Vstatus
p3998
Vopen
p3999
sVname
p4000
V\u6c88\u9633\u7406\u5de5\u5927\u5b66\u4e3b\u6821\u533a
p4001
sVschool_district
p4002
g1
(g2
g3
Ntp4003
Rp4004
S'U\x01@\xb7w\x8d\x17\x15\xb9B\x0e\x82'
p4005
bsVmobile
p4006
V18940293810
p4007
sVmin_cost_to_deliver
p4008
I0
sVdelivery_price
p4009
I100
sVimage_id
p4010
g1
(g2
g3
Ntp4011
Rp4012
S'U\x01@\xacw\x8d\x17\x15\xb9B\r\xfd'
p4013
bsVopen_hour
p4014
(lp4015
I0
aI86400
asVlocation
p4016
(lp4017
F116.405703
aF39.907745
asVaddress
p4018
V\u5317\u4eac\u5e02\u4e1c\u57ce\u533a\u4e1c\u4ea4\u6c11\u5df744\u53f7
p4019
sVcreated_time
p4020
L1426145474178L
sV_id
p4021
g3995
sVtype
p4022
Vcvs
p4023
ssg1
(g2
g3
Ntp4024
Rp4025
S'U\x01@\xc1w\x8d\x17\x15\xb9B\x12\x1f'
p4026
b(dp4027
Vstatus
p4028
Vopen
p4029
sVname
p4030
V\u897f\u5b89\u7406\u5de5\u5927\u5b66\u91d1\u82b1\u6821\u533a
p4031
sVschool_district
p4032
g1
(g2
g3
Ntp4033
Rp4034
S'U\x01@\xbdw\x8d\x17\x15\xb9B\x0e\xda'
p4035
bsVmobile
p4036
V13572194781
p4037
sVmin_cost_to_deliver
p4038
I0
sVdelivery_price
p4039
I100
sVimage_id
p4040
g1
(g2
g3
Ntp4041
Rp4042
S'U\x01@\xacw\x8d\x17\x15\xb9B\r\xfd'
p4043
bsVopen_hour
p4044
(lp4045
I0
aI86400
asVlocation
p4046
(lp4047
F108.99446
aF34.254663
asVaddress
p4048
V\u9655\u897f\u7701\u897f\u5b89\u5e02\u7891\u6797\u533a\u5174\u5e86\u5357\u8def30\u53f7
p4049
sVcreated_time
p4050
L1426145473799L
sV_id
p4051
g4025
sVtype
p4052
Vcvs
p4053
ssg1
(g2
g3
Ntp4054
Rp4055
S'U\x01@\xc1w\x8d\x17\x15\xb9B\x0f\xff'
p4056
b(dp4057
Vstatus
p4058
Vopen
p4059
sVname
p4060
V\u6c5f\u82cf\u519c\u7267\u79d1\u6280\u804c\u4e1a\u6280\u672f\u5b66\u9662\u4e3b\u6821\u533a
p4061
sVschool_district
p4062
g1
(g2
g3
Ntp4063
Rp4064
S'U\x01@\xb3w\x8d\x17\x15\xb9B\x0eS'
p4065
bsVmobile
p4066
V18752518102
p4067
sVmin_cost_to_deliver
p4068
I0
sVdelivery_price
p4069
I100
sVimage_id
p4070
g1
(g2
g3
Ntp4071
Rp4072
S'U\x01@\xacw\x8d\x17\x15\xb9B\r\xfd'
p4073
bsVopen_hour
p4074
(lp4075
I0
aI86400
asVlocation
p4076
(lp4077
F119.941071
aF32.456525
asVaddress
p4078
V\u6c5f\u82cf\u7701\u6cf0\u5dde\u5e02\u6d77\u9675\u533a\u6c38\u5174\u8def
p4079
sVcreated_time
p4080
L1426145473627L
sV_id
p4081
g4055
sVtype
p4082
Vcvs
p4083
ssg1
(g2
g3
Ntp4084
Rp4085
S'U\x01@\xc2w\x8d\x17\x15\xb9B\x15W'
p4086
b(dp4087
Vstatus
p4088
Vopen
p4089
sVname
p4090
V\u534e\u4e2d\u519c\u4e1a\u5927\u5b66\u4e3b\u6821\u533a
p4091
sVschool_district
p4092
g1
(g2
g3
Ntp4093
Rp4094
S'U\x01@\xb2w\x8d\x17\x15\xb9B\x0eL'
p4095
bsVmobile
p4096
V15071113866
p4097
sVmin_cost_to_deliver
p4098
I0
sVdelivery_price
p4099
I100
sVimage_id
p4100
g1
(g2
g3
Ntp4101
Rp4102
S'U\x01@\xacw\x8d\x17\x15\xb9B\r\xfd'
p4103
bsVopen_hour
p4104
(lp4105
I0
aI86400
asVlocation
p4106
(lp4107
F114.356022
aF30.474376
asVaddress
p4108
V\u6e56\u5317\u7701\u6b66\u6c49\u5e02\u6d2a\u5c71\u533a\u68a7\u6850\u8def
p4109
sVcreated_time
p4110
L1426145474068L
sV_id
p4111
g4085
sVtype
p4112
Vcvs
p4113
ssg1
(g2
g3
Ntp4114
Rp4115
S'U\x01@\xc1w\x8d\x17\x15\xb9B\x12\x8f'
p4116
b(dp4117
Vstatus
p4118
Vopen
p4119
sVname
p4120
V\u6cb3\u5357\u519c\u4e1a\u5927\u5b66\u8bb8\u660c\u6821\u533a
p4121
sVschool_district
p4122
g1
(g2
g3
Ntp4123
Rp4124
S'U\x01@\xbew\x8d\x17\x15\xb9B\x0e\xe8'
p4125
bsVmobile
p4126
V18864695119
p4127
sVmin_cost_to_deliver
p4128
I0
sVdelivery_price
p4129
I100
sVimage_id
p4130
g1
(g2
g3
Ntp4131
Rp4132
S'U\x01@\xacw\x8d\x17\x15\xb9B\r\xfd'
p4133
bsVopen_hour
p4134
(lp4135
I0
aI86400
asVlocation
p4136
(lp4137
F113.807201
aF34.13519
asVaddress
p4138
V\u6cb3\u5357\u7701\u8bb8\u660c\u5e02\u8bb8\u660c\u53bf
p4139
sVcreated_time
p4140
L1426145473835L
sV_id
p4141
g4115
sVtype
p4142
Vcvs
p4143
ssg1
(g2
g3
Ntp4144
Rp4145
S'U\x01@\xc2w\x8d\x17\x15\xb9B\x16\x8f'
p4146
b(dp4147
Vstatus
p4148
Vopen
p4149
sVname
p4150
V\u6c88\u9633\u822a\u7a7a\u822a\u5929\u5927\u5b66\u4e3b\u6821\u533a
p4151
sVschool_district
p4152
g1
(g2
g3
Ntp4153
Rp4154
S'U\x01@\xb7w\x8d\x17\x15\xb9B\x0e\x81'
p4155
bsVmobile
p4156
V18004024115
p4157
sVmin_cost_to_deliver
p4158
I0
sVdelivery_price
p4159
I100
sVimage_id
p4160
g1
(g2
g3
Ntp4161
Rp4162
S'U\x01@\xacw\x8d\x17\x15\xb9B\r\xfd'
p4163
bsVopen_hour
p4164
(lp4165
I0
aI86400
asVlocation
p4166
(lp4167
F123.408307
aF41.925718
asVaddress
p4168
V\u8fbd\u5b81\u7701\u6c88\u9633\u5e02\u6c88\u5317\u65b0\u533a\u6b63\u4e49\u56db\u8def1\u53f7
p4169
sVcreated_time
p4170
L1426145474176L
sV_id
p4171
g4145
sVtype
p4172
Vcvs
p4173
ssg1
(g2
g3
Ntp4174
Rp4175
S'U\x01@\xc1w\x8d\x17\x15\xb9B\x12\x07'
p4176
b(dp4177
Vstatus
p4178
Vopen
p4179
sVname
p4180
V\u5b89\u5fbd\u4e09\u8054\u5b66\u9662\u5317\u6821\u533a
p4181
sVschool_district
p4182
g1
(g2
g3
Ntp4183
Rp4184
S'U\x01@\xbdw\x8d\x17\x15\xb9B\x0e\xd7'
p4185
bsVmobile
p4186
V18755117865
p4187
sVmin_cost_to_deliver
p4188
I0
sVdelivery_price
p4189
I100
sVimage_id
p4190
g1
(g2
g3
Ntp4191
Rp4192
S'U\x01@\xacw\x8d\x17\x15\xb9B\r\xfd'
p4193
bsVopen_hour
p4194
(lp4195
I0
aI86400
asVlocation
p4196
(lp4197
F117.19912
aF31.75568
asVaddress
p4198
V\u5b89\u5fbd\u7701\u5408\u80a5\u5e02\u80a5\u897f\u53bf\u6c64\u53e3\u8def
p4199
sVcreated_time
p4200
L1426145473792L
sV_id
p4201
g4175
sVtype
p4202
Vcvs
p4203
ssg1
(g2
g3
Ntp4204
Rp4205
S'U\x01@\xc1w\x8d\x17\x15\xb9B\x0f\xe7'
p4206
b(dp4207
Vstatus
p4208
Vopen
p4209
sVname
p4210
V\u6dee\u5317\u5e08\u8303\u5927\u5b66\u4fe1\u606f\u5b66\u9662\u4e3b\u6821\u533a
p4211
sVschool_district
p4212
g1
(g2
g3
Ntp4213
Rp4214
S'U\x01@\xb3w\x8d\x17\x15\xb9B\x0eM'
p4215
bsVmobile
p4216
V18305615743
p4217
sVmin_cost_to_deliver
p4218
I0
sVdelivery_price
p4219
I100
sVimage_id
p4220
g1
(g2
g3
Ntp4221
Rp4222
S'U\x01@\xacw\x8d\x17\x15\xb9B\r\xfd'
p4223
bsVopen_hour
p4224
(lp4225
I0
aI86400
asVlocation
p4226
(lp4227
F116.811787
aF33.981348
asVaddress
p4228
V\u5b89\u5fbd\u7701\u6dee\u5317\u5e02\u76f8\u5c71\u533a\u957f\u5c71\u5317\u8def7-6
p4229
sVcreated_time
p4230
L1426145473620L
sV_id
p4231
g4205
sVtype
p4232
Vcvs
p4233
ssg1
(g2
g3
Ntp4234
Rp4235
S'U\x01@\xc2w\x8d\x17\x15\xb9B\x15O'
p4236
b(dp4237
Vstatus
p4238
Vopen
p4239
sVname
p4240
V\u534e\u4e2d\u79d1\u6280\u5927\u5b66\u4e1c\u6821\u533a
p4241
sVschool_district
p4242
g1
(g2
g3
Ntp4243
Rp4244
S'U\x01@\xb2w\x8d\x17\x15\xb9B\x0eK'
p4245
bsVmobile
p4246
V13487082575
p4247
sVmin_cost_to_deliver
p4248
I0
sVdelivery_price
p4249
I100
sVimage_id
p4250
g1
(g2
g3
Ntp4251
Rp4252
S'U\x01@\xacw\x8d\x17\x15\xb9B\r\xfd'
p4253
bsVopen_hour
p4254
(lp4255
I0
aI86400
asVlocation
p4256
(lp4257
F114.420203
aF30.513026
asVaddress
p4258
V\u6e56\u5317\u7701\u6b66\u6c49\u5e02\u6d2a\u5c71\u533a\u5173\u5c71\u4e00\u8def145\u53f7
p4259
sVcreated_time
p4260
L1426145474065L
sV_id
p4261
g4235
sVtype
p4262
Vcvs
p4263
ssg1
(g2
g3
Ntp4264
Rp4265
S'U\x01@\xc2w\x8d\x17\x15\xb9B\x16\x87'
p4266
b(dp4267
Vstatus
p4268
Vopen
p4269
sVname
p4270
V\u6c88\u9633\u57ce\u5e02\u5b66\u9662\u4e3b\u6821\u533a
p4271
sVschool_district
p4272
g1
(g2
g3
Ntp4273
Rp4274
S'U\x01@\xb6w\x8d\x17\x15\xb9B\x0e\x80'
p4275
bsVmobile
p4276
V18804092063
p4277
sVmin_cost_to_deliver
p4278
I0
sVdelivery_price
p4279
I100
sVimage_id
p4280
g1
(g2
g3
Ntp4281
Rp4282
S'U\x01@\xacw\x8d\x17\x15\xb9B\r\xfd'
p4283
bsVopen_hour
p4284
(lp4285
I0
aI86400
asVlocation
p4286
(lp4287
F123.538727
aF41.625147
asVaddress
p4288
V\u8fbd\u5b81\u7701\u6c88\u9633\u5e02\u82cf\u5bb6\u5c6f\u533a\u9c8d\u4f5f\u7ebf
p4289
sVcreated_time
p4290
L1426145474174L
sV_id
p4291
g4265
sVtype
p4292
Vcvs
p4293
ssg1
(g2
g3
Ntp4294
Rp4295
S'U\x01@\xc1w\x8d\x17\x15\xb9B\x12\xa7'
p4296
b(dp4297
Vstatus
p4298
Vopen
p4299
sVname
p4300
V\u6b66\u6c49\u79d1\u6280\u5927\u5b66 \u9ec4\u5bb6\u6e56\u6821\u533a
p4301
sVschool_district
p4302
g1
(g2
g3
Ntp4303
Rp4304
S'U\x01@\xbew\x8d\x17\x15\xb9B\x0e\xec'
p4305
bsVmobile
p4306
V15671684586
p4307
sVmin_cost_to_deliver
p4308
I0
sVdelivery_price
p4309
I100
sVimage_id
p4310
g1
(g2
g3
Ntp4311
Rp4312
S'U\x01@\xacw\x8d\x17\x15\xb9B\r\xfd'
p4313
bsVopen_hour
p4314
(lp4315
I0
aI86400
asVlocation
p4316
(lp4317
F114.267202
aF30.441241
asVaddress
p4318
V\u6e56\u5317\u7701\u6b66\u6c49\u5e02\u6d2a\u5c71\u533ag107
p4319
sVcreated_time
p4320
L1426145473842L
sV_id
p4321
g4295
sVtype
p4322
Vcvs
p4323
ssg1
(g2
g3
Ntp4324
Rp4325
S'U\x01@\xc1w\x8d\x17\x15\xb9B\x12\x0f'
p4326
b(dp4327
Vstatus
p4328
Vopen
p4329
sVname
p4330
V\u5b89\u5fbd\u5927\u5b66
p4331
sVschool_district
p4332
g1
(g2
g3
Ntp4333
Rp4334
S'U\x01@\xbdw\x8d\x17\x15\xb9B\x0e\xd8'
p4335
bsVmobile
p4336
V18801753855
p4337
sVmin_cost_to_deliver
p4338
I0
sVdelivery_price
p4339
I100
sVimage_id
p4340
g1
(g2
g3
Ntp4341
Rp4342
S'U\x01@\xacw\x8d\x17\x15\xb9B\r\xfd'
p4343
bsVopen_hour
p4344
(lp4345
I0
aI86400
asVaddress
p4346
V
p4347
sVcreated_time
p4348
L1426145473795L
sV_id
p4349
g4325
sVtype
p4350
Vcvs
p4351
ssg1
(g2
g3
Ntp4352
Rp4353
S'U\x01@\xc1w\x8d\x17\x15\xb9B\x0f\xef'
p4354
b(dp4355
Vstatus
p4356
Vopen
p4357
sVname
p4358
V\u5409\u9996\u5927\u5b66\u7802\u5b50\u5773\u6821\u533a
p4359
sVschool_district
p4360
g1
(g2
g3
Ntp4361
Rp4362
S'U\x01@\xb3w\x8d\x17\x15\xb9B\x0eO'
p4363
bsVmobile
p4364
V15274323103
p4365
sVmin_cost_to_deliver
p4366
I0
sVdelivery_price
p4367
I100
sVimage_id
p4368
g1
(g2
g3
Ntp4369
Rp4370
S'U\x01@\xacw\x8d\x17\x15\xb9B\r\xfd'
p4371
bsVopen_hour
p4372
(lp4373
I0
aI86400
asVlocation
p4374
(lp4375
F109.722218
aF28.286583
asVaddress
p4376
V\u6e56\u5357\u7701\u6e58\u897f\u571f\u5bb6\u65cf\u82d7\u65cf\u81ea\u6cbb\u5dde\u5409\u9996\u5e02\u79d1\u6280\u56ed\u5317\u8def
p4377
sVcreated_time
p4378
L1426145473623L
sV_id
p4379
g4353
sVtype
p4380
Vcvs
p4381
ssg1
(g2
g3
Ntp4382
Rp4383
S'U\x01@\xc2w\x8d\x17\x15\xb9B\x15G'
p4384
b(dp4385
Vstatus
p4386
Vopen
p4387
sVname
p4388
V\u534e\u5357\u519c\u4e1a\u5927\u5b66\u4e94\u5c71\u6821\u533a
p4389
sVschool_district
p4390
g1
(g2
g3
Ntp4391
Rp4392
S'U\x01@\xb2w\x8d\x17\x15\xb9B\x0eJ'
p4393
bsVmobile
p4394
V18819259812
p4395
sVmin_cost_to_deliver
p4396
I0
sVdelivery_price
p4397
I100
sVimage_id
p4398
g1
(g2
g3
Ntp4399
Rp4400
S'U\x01@\xacw\x8d\x17\x15\xb9B\r\xfd'
p4401
bsVopen_hour
p4402
(lp4403
I0
aI86400
asVlocation
p4404
(lp4405
F113.368134
aF23.152386
asVaddress
p4406
V\u5e7f\u4e1c\u7701\u5e7f\u5dde\u5e02\u5929\u6cb3\u533a\u79d1\u534e\u8857251\u53f7
p4407
sVcreated_time
p4408
L1426145474063L
sV_id
p4409
g4383
sVtype
p4410
Vcvs
p4411
ssg1
(g2
g3
Ntp4412
Rp4413
S'U\x01@\xc2w\x8d\x17\x15\xb9B\x16\xbf'
p4414
b(dp4415
Vstatus
p4416
Vopen
p4417
sVname
p4418
V\u592a\u539f\u7406\u5de5\u5927\u5b66\u660e\u5411\u6821\u533a
p4419
sVschool_district
p4420
g1
(g2
g3
Ntp4421
Rp4422
S'U\x01@\xb7w\x8d\x17\x15\xb9B\x0e\x89'
p4423
bsVmobile
p4424
V184065008559
p4425
sVmin_cost_to_deliver
p4426
I0
sVdelivery_price
p4427
I100
sVimage_id
p4428
g1
(g2
g3
Ntp4429
Rp4430
S'U\x01@\xacw\x8d\x17\x15\xb9B\r\xfd'
p4431
bsVopen_hour
p4432
(lp4433
I0
aI86400
asVlocation
p4434
(lp4435
F112.720756
aF37.749476
asVaddress
p4436
V\u5c71\u897f\u7701\u664b\u4e2d\u5e02\u6986\u6b21\u533a
p4437
sVcreated_time
p4438
L1426145474190L
sV_id
p4439
g4413
sVtype
p4440
Vcvs
p4441
ssg1
(g2
g3
Ntp4442
Rp4443
S'U\x01@\xc1w\x8d\x17\x15\xb9B\x127'
p4444
b(dp4445
Vstatus
p4446
Vopen
p4447
sVname
p4448
V\u5927\u8fde\u5916\u56fd\u8bed\u5927\u5b66\u4e3b\u6821\u533a
p4449
sVschool_district
p4450
g1
(g2
g3
Ntp4451
Rp4452
S'U\x01@\xbdw\x8d\x17\x15\xb9B\x0e\xdd'
p4453
bsVmobile
p4454
V18204004361
p4455
sVmin_cost_to_deliver
p4456
I0
sVdelivery_price
p4457
I100
sVimage_id
p4458
g1
(g2
g3
Ntp4459
Rp4460
S'U\x01@\xacw\x8d\x17\x15\xb9B\r\xfd'
p4461
bsVopen_hour
p4462
(lp4463
I0
aI86400
asVlocation
p4464
(lp4465
F121.311199
aF38.809494
asVaddress
p4466
V\u8fbd\u5b81\u7701\u5927\u8fde\u5e02\u65c5\u987a\u53e3\u533a\u65c5\u987a\u5357\u8def
p4467
sVcreated_time
p4468
L1426145473806L
sV_id
p4469
g4443
sVtype
p4470
Vcvs
p4471
ssg1
(g2
g3
Ntp4472
Rp4473
S'U\x01@\xc1w\x8d\x17\x15\xb9B\x0f\xd7'
p4474
b(dp4475
Vstatus
p4476
Vopen
p4477
sVname
p4478
V\u897f\u5b89\u822a\u7a7a\u804c\u4e1a\u6280\u672f\u5b66\u9662\u4e3b\u6821\u533a
p4479
sVschool_district
p4480
g1
(g2
g3
Ntp4481
Rp4482
S'U\x01@\xc1w\x8d\x17\x15\xb9B\x0f\x0e'
p4483
bsVmobile
p4484
V18240884953
p4485
sVmin_cost_to_deliver
p4486
I0
sVdelivery_price
p4487
I100
sVimage_id
p4488
g1
(g2
g3
Ntp4489
Rp4490
S'U\x01@\xacw\x8d\x17\x15\xb9B\r\xfd'
p4491
bsVopen_hour
p4492
(lp4493
I0
aI86400
asVlocation
p4494
(lp4495
F109.212723
aF34.656667
asVaddress
p4496
V\u9655\u897f\u7701\u897f\u5b89\u5e02\u960e\u826f\u533a\u960e\u5357\u8def
p4497
sVcreated_time
p4498
L1426145473615L
sV_id
p4499
g4473
sVtype
p4500
Vcvs
p4501
ssg1
(g2
g3
Ntp4502
Rp4503
S'U\x01@\xc2w\x8d\x17\x15\xb9B\x15\x7f'
p4504
b(dp4505
Vstatus
p4506
Vopen
p4507
sVname
p4508
V\u6c5f\u897f\u7406\u5de5\u5927\u5b66\u4e3b\u6821\u533a
p4509
sVschool_district
p4510
g1
(g2
g3
Ntp4511
Rp4512
S'U\x01@\xb3w\x8d\x17\x15\xb9B\x0eX'
p4513
bsVmobile
p4514
V18370850576
p4515
sVmin_cost_to_deliver
p4516
I0
sVdelivery_price
p4517
I100
sVimage_id
p4518
g1
(g2
g3
Ntp4519
Rp4520
S'U\x01@\xacw\x8d\x17\x15\xb9B\r\xfd'
p4521
bsVopen_hour
p4522
(lp4523
I0
aI86400
asVlocation
p4524
(lp4525
F114.928234
aF25.854448
asVaddress
p4526
V\u6c5f\u897f\u7701\u8d63\u5dde\u5e02\u7ae0\u8d21\u533a\u6768\u516c\u8def
p4527
sVcreated_time
p4528
L1426145474081L
sV_id
p4529
g4503
sVtype
p4530
Vcvs
p4531
ssg1
(g2
g3
Ntp4532
Rp4533
S'U\x01@\xc2w\x8d\x17\x15\xb9B\x16\xb7'
p4534
b(dp4535
Vstatus
p4536
Vopen
p4537
sVname
p4538
V\u592a\u539f\u79d1\u6280\u5927\u5b66\u5317\u6821\u533a
p4539
sVschool_district
p4540
g1
(g2
g3
Ntp4541
Rp4542
S'U\x01@\xb7w\x8d\x17\x15\xb9B\x0e\x88'
p4543
bsVmobile
p4544
V18434390351
p4545
sVmin_cost_to_deliver
p4546
I0
sVdelivery_price
p4547
I100
sVimage_id
p4548
g1
(g2
g3
Ntp4549
Rp4550
S'U\x01@\xacw\x8d\x17\x15\xb9B\r\xfd'
p4551
bsVopen_hour
p4552
(lp4553
I0
aI86400
asVlocation
p4554
(lp4555
F116.301977
aF39.85362
asVaddress
p4556
V\u5317\u4eac\u5e02\u4e30\u53f0\u533a\u9020\u7532\u8857
p4557
sVcreated_time
p4558
L1426145474187L
sV_id
p4559
g4533
sVtype
p4560
Vcvs
p4561
ssg1
(g2
g3
Ntp4562
Rp4563
S'U\x01@\xc1w\x8d\x17\x15\xb9B\x12?'
p4564
b(dp4565
Vstatus
p4566
Vopen
p4567
sVname
p4568
V\u5927\u8fde\u7406\u5de5\u5927\u5b66\u57ce\u5e02\u5b66\u9662\u4e3b\u6821\u533a
p4569
sVschool_district
p4570
g1
(g2
g3
Ntp4571
Rp4572
S'U\x01@\xbdw\x8d\x17\x15\xb9B\x0e\xde'
p4573
bsVmobile
p4574
V13390547480
p4575
sVmin_cost_to_deliver
p4576
I0
sVdelivery_price
p4577
I100
sVimage_id
p4578
g1
(g2
g3
Ntp4579
Rp4580
S'U\x01@\xacw\x8d\x17\x15\xb9B\r\xfd'
p4581
bsVopen_hour
p4582
(lp4583
I0
aI86400
asVlocation
p4584
(lp4585
F121.769246
aF39.072468
asVaddress
p4586
V\u8fbd\u5b81\u7701\u5927\u8fde\u5e02\u91d1\u5dde\u533a\u94c1\u5c71\u897f\u8def
p4587
sVcreated_time
p4588
L1426145473808L
sV_id
p4589
g4563
sVtype
p4590
Vcvs
p4591
ssg1
(g2
g3
Ntp4592
Rp4593
S'U\x01@\xc1w\x8d\x17\x15\xb9B\x0f\xdf'
p4594
b(dp4595
Vstatus
p4596
Vopen
p4597
sVname
p4598
V\u534e\u4e1c\u4ea4\u901a\u5927\u5b66\u7406\u5de5\u5b66\u9662\u4e3b\u6821\u533a
p4599
sVschool_district
p4600
g1
(g2
g3
Ntp4601
Rp4602
S'U\x01@\xb2w\x8d\x17\x15\xb9B\x0eH'
p4603
bsVmobile
p4604
V18659268251
p4605
sVmin_cost_to_deliver
p4606
I0
sVdelivery_price
p4607
I100
sVimage_id
p4608
g1
(g2
g3
Ntp4609
Rp4610
S'U\x01@\xacw\x8d\x17\x15\xb9B\r\xfd'
p4611
bsVopen_hour
p4612
(lp4613
I0
aI86400
asVlocation
p4614
(lp4615
F115.82994
aF28.706502
asVaddress
p4616
V\u6c5f\u897f\u7701\u5357\u660c\u5e02\u65b0\u5efa\u53bf\u89e3\u653e\u8def785\u53f7
p4617
sVcreated_time
p4618
L1426145473618L
sV_id
p4619
g4593
sVtype
p4620
Vcvs
p4621
ssg1
(g2
g3
Ntp4622
Rp4623
S'U\x01@\xc2w\x8d\x17\x15\xb9B\x15w'
p4624
b(dp4625
Vstatus
p4626
Vopen
p4627
sVname
p4628
V\u6c5f\u897f\u79d1\u6280\u5b66\u9662\u5357\u660c\u53bf\u6821\u533a
p4629
sVschool_district
p4630
g1
(g2
g3
Ntp4631
Rp4632
S'U\x01@\xb3w\x8d\x17\x15\xb9B\x0eW'
p4633
bsVmobile
p4634
V18046716119
p4635
sVmin_cost_to_deliver
p4636
I0
sVdelivery_price
p4637
I100
sVimage_id
p4638
g1
(g2
g3
Ntp4639
Rp4640
S'U\x01@\xacw\x8d\x17\x15\xb9B\r\xfd'
p4641
bsVopen_hour
p4642
(lp4643
I0
aI86400
asVlocation
p4644
(lp4645
F116.017974
aF28.680003
asVaddress
p4646
V\u6c5f\u897f\u7701\u5357\u660c\u5e02\u5357\u660c\u53bf\u7d2b\u9633\u5927\u9053
p4647
sVcreated_time
p4648
L1426145474078L
sV_id
p4649
g4623
sVtype
p4650
Vcvs
p4651
ssg1
(g2
g3
Ntp4652
Rp4653
S'U\x01@\xc2w\x8d\x17\x15\xb9B\x16\xaf'
p4654
b(dp4655
Vstatus
p4656
Vopen
p4657
sVname
p4658
V\u6714\u5dde\u804c\u4e1a\u6280\u672f\u5b66\u9662\u672c\u90e8
p4659
sVschool_district
p4660
g1
(g2
g3
Ntp4661
Rp4662
S'U\x01@\xb7w\x8d\x17\x15\xb9B\x0e\x86'
p4663
bsVmobile
p4664
V15635244499
p4665
sVmin_cost_to_deliver
p4666
I0
sVdelivery_price
p4667
I100
sVimage_id
p4668
g1
(g2
g3
Ntp4669
Rp4670
S'U\x01@\xacw\x8d\x17\x15\xb9B\r\xfd'
p4671
bsVopen_hour
p4672
(lp4673
I0
aI86400
asVlocation
p4674
(lp4675
F112.410875
aF39.302088
asVaddress
p4676
V\u5c71\u897f\u7701\u6714\u5dde\u5e02\u6714\u57ce\u533a
p4677
sVcreated_time
p4678
L1426145474185L
sV_id
p4679
g4653
sVtype
p4680
Vcvs
p4681
ssg1
(g2
g3
Ntp4682
Rp4683
S"U\x01@\xc1w\x8d\x17\x15\xb9B\x12'"
p4684
b(dp4685
Vstatus
p4686
Vopen
p4687
sVname
p4688
V\u6c88\u9633\u5927\u5b66\u4e3b\u6821\u533a
p4689
sVschool_district
p4690
g1
(g2
g3
Ntp4691
Rp4692
S'U\x01@\xbdw\x8d\x17\x15\xb9B\x0e\xdb'
p4693
bsVmobile
p4694
V13840162527
p4695
sVmin_cost_to_deliver
p4696
I0
sVdelivery_price
p4697
I100
sVimage_id
p4698
g1
(g2
g3
Ntp4699
Rp4700
S'U\x01@\xacw\x8d\x17\x15\xb9B\r\xfd'
p4701
bsVopen_hour
p4702
(lp4703
I0
aI86400
asVlocation
p4704
(lp4705
F123.459992
aF41.826041
asVaddress
p4706
V\u8fbd\u5b81\u7701\u6c88\u9633\u5e02\u5927\u4e1c\u533a\u5c0f\u5317\u5173\u8857
p4707
sVcreated_time
p4708
L1426145473802L
sV_id
p4709
g4683
sVtype
p4710
Vcvs
p4711
ssg1
(g2
g3
Ntp4712
Rp4713
S'U\x01@\xc1w\x8d\x17\x15\xb9B\x0f\xc7'
p4714
b(dp4715
Vstatus
p4716
Vopen
p4717
sVname
p4718
V\u5929\u6d25\u751f\u7269\u5de5\u7a0b\u804c\u4e1a\u6280\u672f\u5b66\u9662\u5929\u6d25\u6821\u533a
p4719
sVschool_district
p4720
g1
(g2
g3
Ntp4721
Rp4722
S'U\x01@\xc1w\x8d\x17\x15\xb9B\x0f\x0c'
p4723
bsVmobile
p4724
V18322271099
p4725
sVmin_cost_to_deliver
p4726
I0
sVdelivery_price
p4727
I100
sVimage_id
p4728
g1
(g2
g3
Ntp4729
Rp4730
S'U\x01@\xacw\x8d\x17\x15\xb9B\r\xfd'
p4731
bsVopen_hour
p4732
(lp4733
I0
aI86400
asVlocation
p4734
(lp4735
F117.542699
aF39.073003
asVaddress
p4736
V\u5929\u6d25\u5e02\u4e1c\u4e3d\u533a\u4e2d\u5357\u4e8c\u8857
p4737
sVcreated_time
p4738
L1426145473611L
sV_id
p4739
g4713
sVtype
p4740
Vcvs
p4741
ssg1
(g2
g3
Ntp4742
Rp4743
S'U\x01@\xc2w\x8d\x17\x15\xb9B\x15o'
p4744
b(dp4745
Vstatus
p4746
Vopen
p4747
sVname
p4748
V\u6c5f\u5357\u5927\u5b66\u4e3b\u6821\u533a
p4749
sVschool_district
p4750
g1
(g2
g3
Ntp4751
Rp4752
S'U\x01@\xb3w\x8d\x17\x15\xb9B\x0eR'
p4753
bsVmobile
p4754
V18861821980
p4755
sVmin_cost_to_deliver
p4756
I0
sVdelivery_price
p4757
I100
sVimage_id
p4758
g1
(g2
g3
Ntp4759
Rp4760
S'U\x01@\xacw\x8d\x17\x15\xb9B\r\xfd'
p4761
bsVopen_hour
p4762
(lp4763
I0
aI86400
asVlocation
p4764
(lp4765
F120.271862
aF31.483155
asVaddress
p4766
V\u6c5f\u82cf\u7701\u65e0\u9521\u5e02\u6ee8\u6e56\u533a\u7f18\u6eaa\u9053
p4767
sVcreated_time
p4768
L1426145474075L
sV_id
p4769
g4743
sVtype
p4770
Vcvs
p4771
ssg1
(g2
g3
Ntp4772
Rp4773
S'U\x01@\xc2w\x8d\x17\x15\xb9B\x16\xa7'
p4774
b(dp4775
Vstatus
p4776
Vopen
p4777
sVname
p4778
V\u6714\u5dde\u5e08\u8303\u9ad8\u7b49\u4e13\u79d1\u5b66\u6821\u4e3b\u6821\u533a
p4779
sVschool_district
p4780
g1
(g2
g3
Ntp4781
Rp4782
S'U\x01@\xb7w\x8d\x17\x15\xb9B\x0e\x85'
p4783
bsVmobile
p4784
V18334958513
p4785
sVmin_cost_to_deliver
p4786
I0
sVdelivery_price
p4787
I100
sVimage_id
p4788
g1
(g2
g3
Ntp4789
Rp4790
S'U\x01@\xacw\x8d\x17\x15\xb9B\r\xfd'
p4791
bsVopen_hour
p4792
(lp4793
I0
aI86400
asVlocation
p4794
(lp4795
F112.456828
aF39.376089
asVaddress
p4796
V\u5c71\u897f\u7701\u6714\u5dde\u5e02\u6714\u57ce\u533a\u6881\u90e1\u8def
p4797
sVcreated_time
p4798
L1426145474183L
sV_id
p4799
g4773
sVtype
p4800
Vcvs
p4801
ssg1
(g2
g3
Ntp4802
Rp4803
S'U\x01@\xc1w\x8d\x17\x15\xb9B\x12/'
p4804
b(dp4805
Vstatus
p4806
Vopen
p4807
sVname
p4808
V\u5927\u8fde\u7406\u5de5\u5927\u5b66\u4e3b\u6821\u533a
p4809
sVschool_district
p4810
g1
(g2
g3
Ntp4811
Rp4812
S'U\x01@\xbdw\x8d\x17\x15\xb9B\x0e\xdc'
p4813
bsVmobile
p4814
V18340864193
p4815
sVmin_cost_to_deliver
p4816
I0
sVdelivery_price
p4817
I100
sVimage_id
p4818
g1
(g2
g3
Ntp4819
Rp4820
S'U\x01@\xacw\x8d\x17\x15\xb9B\r\xfd'
p4821
bsVopen_hour
p4822
(lp4823
I0
aI86400
asVlocation
p4824
(lp4825
F121.529017
aF38.880378
asVaddress
p4826
V\u8fbd\u5b81\u7701\u5927\u8fde\u5e02\u7518\u4e95\u5b50\u533a\u683e\u91d1\u4e2d\u8857
p4827
sVcreated_time
p4828
L1426145473804L
sV_id
p4829
g4803
sVtype
p4830
Vcvs
p4831
ssg1
(g2
g3
Ntp4832
Rp4833
S'U\x01@\xc1w\x8d\x17\x15\xb9B\x0f\xcf'
p4834
b(dp4835
Vstatus
p4836
Vopen
p4837
sVname
p4838
V\u6986\u6797\u5b66\u9662\u4e3b\u6821\u533a
p4839
sVschool_district
p4840
g1
(g2
g3
Ntp4841
Rp4842
S'U\x01@\xc1w\x8d\x17\x15\xb9B\x0f\r'
p4843
bsVmobile
p4844
V18079475358
p4845
sVmin_cost_to_deliver
p4846
I0
sVdelivery_price
p4847
I100
sVimage_id
p4848
g1
(g2
g3
Ntp4849
Rp4850
S'U\x01@\xacw\x8d\x17\x15\xb9B\r\xfd'
p4851
bsVopen_hour
p4852
(lp4853
I0
aI86400
asVlocation
p4854
(lp4855
F109.723982
aF38.292653
asVaddress
p4856
V\u9655\u897f\u7701\u6986\u6797\u5e02\u6986\u9633\u533a\u5174\u6986\u8def
p4857
sVcreated_time
p4858
L1426145473613L
sV_id
p4859
g4833
sVtype
p4860
Vcvs
p4861
ssg1
(g2
g3
Ntp4862
Rp4863
S'U\x01@\xc2w\x8d\x17\x15\xb9B\x15g'
p4864
b(dp4865
Vstatus
p4866
Vopen
p4867
sVname
p4868
V\u6c5f\u6c49\u5927\u5b66\u4e3b\u6821\u533a
p4869
sVschool_district
p4870
g1
(g2
g3
Ntp4871
Rp4872
S'U\x01@\xb3w\x8d\x17\x15\xb9B\x0eQ'
p4873
bsVmobile
p4874
V13871416901
p4875
sVmin_cost_to_deliver
p4876
I0
sVdelivery_price
p4877
I100
sVimage_id
p4878
g1
(g2
g3
Ntp4879
Rp4880
S'U\x01@\xacw\x8d\x17\x15\xb9B\r\xfd'
p4881
bsVopen_hour
p4882
(lp4883
I0
aI86400
asVlocation
p4884
(lp4885
F114.161391
aF30.512925
asVaddress
p4886
V\u6e56\u5317\u7701\u6b66\u6c49\u5e02\u8521\u7538\u533a\u4e09\u89d2\u6e56\u8def10-\u964428
p4887
sVcreated_time
p4888
L1426145474073L
sV_id
p4889
g4863
sVtype
p4890
Vcvs
p4891
ssg1
(g2
g3
Ntp4892
Rp4893
S'U\x01@\xc1w\x8d\x17\x15\xb9B\x13\x17'
p4894
b(dp4895
Vstatus
p4896
Vopen
p4897
sVname
p4898
V\u5b89\u5fbd\u65b0\u534e\u5b66\u9662\u4e3b\u6821\u533a
p4899
sVschool_district
p4900
g1
(g2
g3
Ntp4901
Rp4902
S'U\x01@\xadw\x8d\x17\x15\xb9B\x0e\x03'
p4903
bsVmobile
p4904
V18119608492
p4905
sVmin_cost_to_deliver
p4906
I0
sVdelivery_price
p4907
I100
sVimage_id
p4908
g1
(g2
g3
Ntp4909
Rp4910
S'U\x01@\xacw\x8d\x17\x15\xb9B\r\xfd'
p4911
bsVopen_hour
p4912
(lp4913
I0
aI86400
asVlocation
p4914
(lp4915
F117.185097
aF31.8293
asVaddress
p4916
V\u5b89\u5fbd\u7701\u5408\u80a5\u5e02\u8700\u5c71\u533a\u7389\u5170\u5927\u9053
p4917
sVcreated_time
p4918
L1426145473877L
sV_id
p4919
g4893
sVtype
p4920
Vcvs
p4921
ssg1
(g2
g3
Ntp4922
Rp4923
S'U\x01@\xc1w\x8d\x17\x15\xb9B\x11\xaf'
p4924
b(dp4925
Vstatus
p4926
Vopen
p4927
sVname
p4928
V\u6cb3\u5317\u5927\u5b66\u6821\u672c\u90e8
p4929
sVschool_district
p4930
g1
(g2
g3
Ntp4931
Rp4932
S'U\x01@\xbcw\x8d\x17\x15\xb9B\x0e\xcc'
p4933
bsVmobile
p4934
V13472058688
p4935
sVmin_cost_to_deliver
p4936
I0
sVdelivery_price
p4937
I100
sVimage_id
p4938
g1
(g2
g3
Ntp4939
Rp4940
S'U\x01@\xacw\x8d\x17\x15\xb9B\r\xfd'
p4941
bsVopen_hour
p4942
(lp4943
I0
aI86400
asVlocation
p4944
(lp4945
F115.51676
aF38.873378
asVaddress
p4946
V\u6cb3\u5317\u7701\u4fdd\u5b9a\u5e02\u5317\u5e02\u533a\u957f\u57ce\u5317\u5927\u885757
p4947
sVcreated_time
p4948
L1426145473763L
sV_id
p4949
g4923
sVtype
p4950
Vcvs
p4951
ssg1
(g2
g3
Ntp4952
Rp4953
S'U\x01@\xc1w\x8d\x17\x15\xb9B\x12\xbf'
p4954
b(dp4955
Vstatus
p4956
Vopen
p4957
sVname
p4958
V\u4e1c\u839e\u7406\u5de5\u5b66\u9662\u4e3b\u6821\u533a
p4959
sVschool_district
p4960
g1
(g2
g3
Ntp4961
Rp4962
S'U\x01@\xbfw\x8d\x17\x15\xb9B\x0e\xef'
p4963
bsVmobile
p4964
V13559773959
p4965
sVmin_cost_to_deliver
p4966
I0
sVdelivery_price
p4967
I100
sVimage_id
p4968
g1
(g2
g3
Ntp4969
Rp4970
S'U\x01@\xacw\x8d\x17\x15\xb9B\r\xfd'
p4971
bsVopen_hour
p4972
(lp4973
I0
aI86400
asVlocation
p4974
(lp4975
F113.87505
aF22.903786
asVaddress
p4976
V\u5e7f\u4e1c\u7701\u4e1c\u839e\u5e02\u4e1c\u839e\u5e02\u5e02\u8f96\u533a\u5927\u5b66\u8def
p4977
sVcreated_time
p4978
L1426145473849L
sV_id
p4979
g4953
sVtype
p4980
Vcvs
p4981
ssg1
(g2
g3
Ntp4982
Rp4983
S'U\x01@\xc1w\x8d\x17\x15\xb9B\x10W'
p4984
b(dp4985
Vstatus
p4986
Vopen
p4987
sVname
p4988
V\u77f3\u5bb6\u5e84\u94c1\u8def\u804c\u4e1a\u6280\u672f\u5b66\u9662\u5b66\u5e9c\u8def\u6821\u533a
p4989
sVschool_district
p4990
g1
(g2
g3
Ntp4991
Rp4992
S'U\x01@\xb7w\x8d\x17\x15\xb9B\x0e\x84'
p4993
bsVmobile
p4994
V15733183727
p4995
sVmin_cost_to_deliver
p4996
I0
sVdelivery_price
p4997
I100
sVimage_id
p4998
g1
(g2
g3
Ntp4999
Rp5000
S'U\x01@\xacw\x8d\x17\x15\xb9B\r\xfd'
p5001
bsVopen_hour
p5002
(lp5003
I0
aI86400
asVlocation
p5004
(lp5005
F114.499961
aF38.128991
asVaddress
p5006
V\u6cb3\u5317\u7701\u77f3\u5bb6\u5e84\u5e02\u6865\u4e1c\u533ax057
p5007
sVcreated_time
p5008
L1426145473651L
sV_id
p5009
g4983
sVtype
p5010
Vcvs
p5011
ssg1
(g2
g3
Ntp5012
Rp5013
S'U\x01@\xc1w\x8d\x17\x15\xb9B\x13\x1f'
p5014
b(dp5015
Vstatus
p5016
Vopen
p5017
sVname
p5018
V\u5b89\u5fbd\u533b\u79d1\u5927\u5b66\u4e3b\u6821\u533a
p5019
sVschool_district
p5020
g1
(g2
g3
Ntp5021
Rp5022
S'U\x01@\xadw\x8d\x17\x15\xb9B\x0e\x04'
p5023
bsVmobile
p5024
V13075574659
p5025
sVmin_cost_to_deliver
p5026
I0
sVdelivery_price
p5027
I100
sVimage_id
p5028
g1
(g2
g3
Ntp5029
Rp5030
S'U\x01@\xacw\x8d\x17\x15\xb9B\r\xfd'
p5031
bsVopen_hour
p5032
(lp5033
I0
aI86400
asVlocation
p5034
(lp5035
F117.262764
aF31.848778
asVaddress
p5036
V\u5b89\u5fbd\u7701\u5408\u80a5\u5e02\u8700\u5c71\u533a\u9ec4\u5c71\u8def
p5037
sVcreated_time
p5038
L1426145473880L
sV_id
p5039
g5013
sVtype
p5040
Vcvs
p5041
ssg1
(g2
g3
Ntp5042
Rp5043
S'U\x01@\xc1w\x8d\x17\x15\xb9B\x11\xa7'
p5044
b(dp5045
Vstatus
p5046
Vopen
p5047
sVname
p5048
V\u6cb3\u5317\u673a\u7535\u804c\u4e1a\u6280\u672f\u5b66\u9662\u4e3b\u6821\u533a
p5049
sVschool_district
p5050
g1
(g2
g3
Ntp5051
Rp5052
S'U\x01@\xbcw\x8d\x17\x15\xb9B\x0e\xcb'
p5053
bsVmobile
p5054
V13333395727
p5055
sVmin_cost_to_deliver
p5056
I0
sVdelivery_price
p5057
I100
sVimage_id
p5058
g1
(g2
g3
Ntp5059
Rp5060
S'U\x01@\xacw\x8d\x17\x15\xb9B\r\xfd'
p5061
bsVopen_hour
p5062
(lp5063
I0
aI86400
asVlocation
p5064
(lp5065
F114.45611
aF37.094634
asVaddress
p5066
V\u6cb3\u5317\u7701\u90a2\u53f0\u5e02\u6865\u897f\u533a\u516c\u56ed\u897f\u8857
p5067
sVcreated_time
p5068
L1426145473760L
sV_id
p5069
g5043
sVtype
p5070
Vcvs
p5071
ssg1
(g2
g3
Ntp5072
Rp5073
S'U\x01@\xc1w\x8d\x17\x15\xb9B\x10_'
p5074
b(dp5075
Vstatus
p5076
Vopen
p5077
sVname
p5078
V\u56db\u5ddd\u5916\u56fd\u8bed\u5927\u5b66\u6210\u90fd\u5b66\u9662\u4e3b\u6821\u533a
p5079
sVschool_district
p5080
g1
(g2
g3
Ntp5081
Rp5082
S'U\x01@\xb7w\x8d\x17\x15\xb9B\x0e\x87'
p5083
bsVmobile
p5084
V18081776333
p5085
sVmin_cost_to_deliver
p5086
I0
sVdelivery_price
p5087
I100
sVimage_id
p5088
g1
(g2
g3
Ntp5089
Rp5090
S'U\x01@\xacw\x8d\x17\x15\xb9B\r\xfd'
p5091
bsVopen_hour
p5092
(lp5093
I0
aI86400
asVlocation
p5094
(lp5095
F103.574594
aF30.829913
asVaddress
p5096
V\u56db\u5ddd\u7701\u6210\u90fd\u5e02\u90fd\u6c5f\u5830\u5e02\u5ddd\u897f\u65c5\u6e38\u7ebf
p5097
sVcreated_time
p5098
L1426145473654L
sV_id
p5099
g5073
sVtype
p5100
Vcvs
p5101
ssg1
(g2
g3
Ntp5102
Rp5103
S'U\x01@\xc1w\x8d\x17\x15\xb9B\x13\x07'
p5104
b(dp5105
Vstatus
p5106
Vopen
p5107
sVname
p5108
V\u5b89\u5fbd\u79d1\u6280\u5b66\u9662\u4e3b\u6821\u533a
p5109
sVschool_district
p5110
g1
(g2
g3
Ntp5111
Rp5112
S'U\x01@\xadw\x8d\x17\x15\xb9B\x0e\x01'
p5113
bsVmobile
p5114
V18365286813
p5115
sVmin_cost_to_deliver
p5116
I0
sVdelivery_price
p5117
I100
sVimage_id
p5118
g1
(g2
g3
Ntp5119
Rp5120
S'U\x01@\xacw\x8d\x17\x15\xb9B\r\xfd'
p5121
bsVopen_hour
p5122
(lp5123
I0
aI86400
asVlocation
p5124
(lp5125
F117.565662
aF32.87346
asVaddress
p5126
V\u5b89\u5fbd\u7701\u6ec1\u5dde\u5e02\u51e4\u9633\u53bf\u5c1a\u8d24\u8def
p5127
sVcreated_time
p5128
L1426145473872L
sV_id
p5129
g5103
sVtype
p5130
Vcvs
p5131
ssg1
(g2
g3
Ntp5132
Rp5133
S'U\x01@\xc1w\x8d\x17\x15\xb9B\x11\xbf'
p5134
b(dp5135
Vstatus
p5136
Vopen
p5137
sVname
p5138
V\u6cb3\u5317\u5de5\u7a0b\u5927\u5b66\u4e1b\u53f0\u6821\u533a
p5139
sVschool_district
p5140
g1
(g2
g3
Ntp5141
Rp5142
S'U\x01@\xbcw\x8d\x17\x15\xb9B\x0e\xce'
p5143
bsVmobile
p5144
V15512382938
p5145
sVmin_cost_to_deliver
p5146
I0
sVdelivery_price
p5147
I100
sVimage_id
p5148
g1
(g2
g3
Ntp5149
Rp5150
S'U\x01@\xacw\x8d\x17\x15\xb9B\r\xfd'
p5151
bsVopen_hour
p5152
(lp5153
I0
aI86400
asVlocation
p5154
(lp5155
F114.501937
aF36.618266
asVaddress
p5156
V\u6cb3\u5317\u7701\u90af\u90f8\u5e02\u4e1b\u53f0\u533a\u5c55\u89c8\u5357\u8def2\u53f7
p5157
sVcreated_time
p5158
L1426145473768L
sV_id
p5159
g5133
sVtype
p5160
Vcvs
p5161
ssg1
(g2
g3
Ntp5162
Rp5163
S'U\x01@\xc1w\x8d\x17\x15\xb9B\x10G'
p5164
b(dp5165
Vstatus
p5166
Vopen
p5167
sVname
p5168
V\u53a6\u95e8\u533b\u5b66\u9ad8\u7b49\u4e13\u79d1\u5b66\u6821\u4e3b\u6821\u533a
p5169
sVschool_district
p5170
g1
(g2
g3
Ntp5171
Rp5172
S'U\x01@\xb5w\x8d\x17\x15\xb9B\x0el'
p5173
bsVmobile
p5174
V18859271782
p5175
sVmin_cost_to_deliver
p5176
I0
sVdelivery_price
p5177
I100
sVimage_id
p5178
g1
(g2
g3
Ntp5179
Rp5180
S'U\x01@\xacw\x8d\x17\x15\xb9B\r\xfd'
p5181
bsVopen_hour
p5182
(lp5183
I0
aI86400
asVlocation
p5184
(lp5185
F118.095107
aF24.466511
asVaddress
p5186
V\u798f\u5efa\u7701\u53a6\u95e8\u5e02\u601d\u660e\u533a\u6597\u897f\u8def2\u53f7
p5187
sVcreated_time
p5188
L1426145473647L
sV_id
p5189
g5163
sVtype
p5190
Vcvs
p5191
ssg1
(g2
g3
Ntp5192
Rp5193
S'U\x01@\xc1w\x8d\x17\x15\xb9B\x13\x0f'
p5194
b(dp5195
Vstatus
p5196
Vopen
p5197
sVname
p5198
V\u5b89\u5fbd\u519c\u4e1a\u5927\u5b66\u4e3b\u6821\u533a
p5199
sVschool_district
p5200
g1
(g2
g3
Ntp5201
Rp5202
S'U\x01@\xadw\x8d\x17\x15\xb9B\x0e\x02'
p5203
bsVmobile
p5204
V18130075576
p5205
sVmin_cost_to_deliver
p5206
I0
sVdelivery_price
p5207
I100
sVimage_id
p5208
g1
(g2
g3
Ntp5209
Rp5210
S'U\x01@\xacw\x8d\x17\x15\xb9B\r\xfd'
p5211
bsVopen_hour
p5212
(lp5213
I0
aI86400
asVlocation
p5214
(lp5215
F117.258495
aF31.860806
asVaddress
p5216
V\u5b89\u5fbd\u7701\u5408\u80a5\u5e02\u8700\u5c71\u533a\u957f\u6c5f\u897f\u8def334\u53f7
p5217
sVcreated_time
p5218
L1426145473875L
sV_id
p5219
g5193
sVtype
p5220
Vcvs
p5221
ssg1
(g2
g3
Ntp5222
Rp5223
S'U\x01@\xc1w\x8d\x17\x15\xb9B\x11\xb7'
p5224
b(dp5225
Vstatus
p5226
Vopen
p5227
sVname
p5228
V\u6cb3\u5317\u7ecf\u8d38\u5927\u5b66\u6821\u672c\u90e8
p5229
sVschool_district
p5230
g1
(g2
g3
Ntp5231
Rp5232
S'U\x01@\xbcw\x8d\x17\x15\xb9B\x0e\xcd'
p5233
bsVmobile
p5234
V18333187735
p5235
sVmin_cost_to_deliver
p5236
I0
sVdelivery_price
p5237
I100
sVimage_id
p5238
g1
(g2
g3
Ntp5239
Rp5240
S'U\x01@\xacw\x8d\x17\x15\xb9B\r\xfd'
p5241
bsVopen_hour
p5242
(lp5243
I0
aI86400
asVlocation
p5244
(lp5245
F114.492837
aF38.135705
asVaddress
p5246
V\u6cb3\u5317\u7701\u77f3\u5bb6\u5e84\u5e02\u65b0\u534e\u533a\u9ad8\u57fa\u5927\u8857
p5247
sVcreated_time
p5248
L1426145473765L
sV_id
p5249
g5223
sVtype
p5250
Vcvs
p5251
ssg1
(g2
g3
Ntp5252
Rp5253
S'U\x01@\xc1w\x8d\x17\x15\xb9B\x10O'
p5254
b(dp5255
Vstatus
p5256
Vopen
p5257
sVname
p5258
V\u5c71\u897f\u5de5\u7a0b\u804c\u4e1a\u6280\u672f\u5b66\u9662\u4e3b\u6821\u533a
p5259
sVschool_district
p5260
g1
(g2
g3
Ntp5261
Rp5262
S'U\x01@\xb5w\x8d\x17\x15\xb9B\x0es'
p5263
bsVmobile
p5264
V13623672586
p5265
sVmin_cost_to_deliver
p5266
I0
sVdelivery_price
p5267
I100
sVimage_id
p5268
g1
(g2
g3
Ntp5269
Rp5270
S'U\x01@\xacw\x8d\x17\x15\xb9B\r\xfd'
p5271
bsVopen_hour
p5272
(lp5273
I0
aI86400
asVlocation
p5274
(lp5275
F112.549353
aF37.880133
asVaddress
p5276
V\u5c71\u897f\u7701\u592a\u539f\u5e02\u674f\u82b1\u5cad\u533a\u5e9c\u897f\u8857103\u53f7
p5277
sVcreated_time
p5278
L1426145473649L
sV_id
p5279
g5253
sVtype
p5280
Vcvs
p5281
ssg1
(g2
g3
Ntp5282
Rp5283
S'U\x01@\xc1w\x8d\x17\x15\xb9B\x137'
p5284
b(dp5285
Vstatus
p5286
Vopen
p5287
sVname
p5288
V\u5317\u4eac\u79d1\u6280\u5927\u5b66\u6d77\u6dc0\u6821\u533a
p5289
sVschool_district
p5290
g1
(g2
g3
Ntp5291
Rp5292
S'U\x01@\xadw\x8d\x17\x15\xb9B\x0e\x07'
p5293
bsVmobile
p5294
V13522810034
p5295
sVmin_cost_to_deliver
p5296
I0
sVdelivery_price
p5297
I100
sVimage_id
p5298
g1
(g2
g3
Ntp5299
Rp5300
S'U\x01@\xacw\x8d\x17\x15\xb9B\r\xfd'
p5301
bsVopen_hour
p5302
(lp5303
I0
aI86400
asVlocation
p5304
(lp5305
F116.357229
aF39.996849
asVaddress
p5306
V\u5317\u4eac\u5e02\u6d77\u6dc0\u533a\u5b66\u9662\u8def
p5307
sVcreated_time
p5308
L1426145473889L
sV_id
p5309
g5283
sVtype
p5310
Vcvs
p5311
ssg1
(g2
g3
Ntp5312
Rp5313
S'U\x01@\xc1w\x8d\x17\x15\xb9B\x11\x8f'
p5314
b(dp5315
Vstatus
p5316
Vopen
p5317
sVname
p5318
V\u5317\u4eac\u4e2d\u533b\u836f\u5927\u5b66\u4e3b\u6821\u533a
p5319
sVschool_district
p5320
g1
(g2
g3
Ntp5321
Rp5322
S'U\x01@\xbcw\x8d\x17\x15\xb9B\x0e\xc8'
p5323
bsVmobile
p5324
V18810900506
p5325
sVmin_cost_to_deliver
p5326
I0
sVdelivery_price
p5327
I100
sVimage_id
p5328
g1
(g2
g3
Ntp5329
Rp5330
S'U\x01@\xacw\x8d\x17\x15\xb9B\r\xfd'
p5331
bsVopen_hour
p5332
(lp5333
I0
aI86400
asVlocation
p5334
(lp5335
F116.427784
aF39.970904
asVaddress
p5336
V\u5317\u4eac\u5e02\u671d\u9633\u533a\u548c\u5e73\u91cc\u897f\u8857
p5337
sVcreated_time
p5338
L1426145473753L
sV_id
p5339
g5313
sVtype
p5340
Vcvs
p5341
ssg1
(g2
g3
Ntp5342
Rp5343
S'U\x01@\xc1w\x8d\x17\x15\xb9B\x10w'
p5344
b(dp5345
Vstatus
p5346
Vopen
p5347
sVname
p5348
V\u897f\u4eac\u5b66\u9662\u4e3b\u6821\u533a
p5349
sVschool_district
p5350
g1
(g2
g3
Ntp5351
Rp5352
S'U\x01@\xb9w\x8d\x17\x15\xb9B\x0e\xa5'
p5353
bsVmobile
p5354
V18792476817
p5355
sVmin_cost_to_deliver
p5356
I0
sVdelivery_price
p5357
I100
sVimage_id
p5358
g1
(g2
g3
Ntp5359
Rp5360
S'U\x01@\xacw\x8d\x17\x15\xb9B\r\xfd'
p5361
bsVopen_hour
p5362
(lp5363
I0
aI86400
asVlocation
p5364
(lp5365
F108.929217
aF34.13633
asVaddress
p5366
V\u9655\u897f\u7701\u897f\u5b89\u5e02\u957f\u5b89\u533a\u795e\u79be\u4e00\u8def
p5367
sVcreated_time
p5368
L1426145473660L
sV_id
p5369
g5343
sVtype
p5370
Vcvs
p5371
ssg1
(g2
g3
Ntp5372
Rp5373
S'U\x01@\xc1w\x8d\x17\x15\xb9B\x13?'
p5374
b(dp5375
Vstatus
p5376
Vopen
p5377
sVname
p5378
V\u5317\u4eac\u77f3\u6cb9\u5316\u5de5\u5b66\u9662\u4e3b\u6821\u533a
p5379
sVschool_district
p5380
g1
(g2
g3
Ntp5381
Rp5382
S'U\x01@\xadw\x8d\x17\x15\xb9B\x0e\x08'
p5383
bsVmobile
p5384
V18811103126
p5385
sVmin_cost_to_deliver
p5386
I0
sVdelivery_price
p5387
I100
sVimage_id
p5388
g1
(g2
g3
Ntp5389
Rp5390
S'U\x01@\xacw\x8d\x17\x15\xb9B\r\xfd'
p5391
bsVopen_hour
p5392
(lp5393
I0
aI86400
asVlocation
p5394
(lp5395
F116.325988
aF39.746805
asVaddress
p5396
V\u5317\u4eac\u5e02\u5927\u5174\u533a\u6e05\u6e90\u897f\u8def
p5397
sVcreated_time
p5398
L1426145473893L
sV_id
p5399
g5373
sVtype
p5400
Vcvs
p5401
ssg1
(g2
g3
Ntp5402
Rp5403
S'U\x01@\xc1w\x8d\x17\x15\xb9B\x11\x87'
p5404
b(dp5405
Vstatus
p5406
Vopen
p5407
sVname
p5408
V\u91cd\u5e86\u7406\u5de5\u5927\u5b66\u82b1\u6eaa\u6821\u533a
p5409
sVschool_district
p5410
g1
(g2
g3
Ntp5411
Rp5412
S'U\x01@\xbcw\x8d\x17\x15\xb9B\x0e\xc7'
p5413
bsVmobile
p5414
V18983662643
p5415
sVmin_cost_to_deliver
p5416
I0
sVdelivery_price
p5417
I100
sVimage_id
p5418
g1
(g2
g3
Ntp5419
Rp5420
S'U\x01@\xacw\x8d\x17\x15\xb9B\r\xfd'
p5421
bsVopen_hour
p5422
(lp5423
I0
aI86400
asVlocation
p5424
(lp5425
F106.530185
aF29.453117
asVaddress
p5426
V\u91cd\u5e86\u5e02\u5df4\u5357\u533a\u5efa\u8bbe\u5927\u9053
p5427
sVcreated_time
p5428
L1426145473750L
sV_id
p5429
g5403
sVtype
p5430
Vcvs
p5431
ssg1
(g2
g3
Ntp5432
Rp5433
S'U\x01@\xc1w\x8d\x17\x15\xb9B\x10\x7f'
p5434
b(dp5435
Vstatus
p5436
Vopen
p5437
sVname
p5438
V\u897f\u5357\u5927\u5b66\u4e3b\u6821\u533a
p5439
sVschool_district
p5440
g1
(g2
g3
Ntp5441
Rp5442
S'U\x01@\xb9w\x8d\x17\x15\xb9B\x0e\xa6'
p5443
bsVmobile
p5444
V18883325668
p5445
sVmin_cost_to_deliver
p5446
I0
sVdelivery_price
p5447
I100
sVimage_id
p5448
g1
(g2
g3
Ntp5449
Rp5450
S'U\x01@\xacw\x8d\x17\x15\xb9B\r\xfd'
p5451
bsVopen_hour
p5452
(lp5453
I0
aI86400
asVlocation
p5454
(lp5455
F106.425547
aF29.825026
asVaddress
p5456
V\u91cd\u5e86\u5e02\u5317\u789a\u533a\u878d\u6c47\u4e2d\u8def
p5457
sVcreated_time
p5458
L1426145473662L
sV_id
p5459
g5433
sVtype
p5460
Vcvs
p5461
ssg1
(g2
g3
Ntp5462
Rp5463
S"U\x01@\xc1w\x8d\x17\x15\xb9B\x13'"
p5464
b(dp5465
Vstatus
p5466
Vopen
p5467
sVname
p5468
V\u5317\u4eac\u57ce\u5e02\u5b66\u9662\u822a\u5929\u57ce\u6821\u533a
p5469
sVschool_district
p5470
g1
(g2
g3
Ntp5471
Rp5472
S'U\x01@\xadw\x8d\x17\x15\xb9B\x0e\x05'
p5473
bsVmobile
p5474
V13126569338
p5475
sVmin_cost_to_deliver
p5476
I0
sVdelivery_price
p5477
I100
sVimage_id
p5478
g1
(g2
g3
Ntp5479
Rp5480
S'U\x01@\xacw\x8d\x17\x15\xb9B\r\xfd'
p5481
bsVopen_hour
p5482
(lp5483
I0
aI86400
asVlocation
p5484
(lp5485
F116.263288
aF40.10002
asVaddress
p5486
V\u5317\u4eac\u5e02\u6d77\u6dc0\u533a\u53cb\u8c0a\u8def
p5487
sVcreated_time
p5488
L1426145473883L
sV_id
p5489
g5463
sVtype
p5490
Vcvs
p5491
ssg1
(g2
g3
Ntp5492
Rp5493
S'U\x01@\xc1w\x8d\x17\x15\xb9B\x11\x9f'
p5494
b(dp5495
Vstatus
p5496
Vopen
p5497
sVname
p5498
V\u4e2d\u592e\u6c11\u65cf\u5927\u5b66\u4e3b\u6821\u533a
p5499
sVschool_district
p5500
g1
(g2
g3
Ntp5501
Rp5502
S'U\x01@\xbcw\x8d\x17\x15\xb9B\x0e\xca'
p5503
bsVmobile
p5504
V18811303882
p5505
sVmin_cost_to_deliver
p5506
I0
sVdelivery_price
p5507
I100
sVimage_id
p5508
g1
(g2
g3
Ntp5509
Rp5510
S'U\x01@\xacw\x8d\x17\x15\xb9B\r\xfd'
p5511
bsVopen_hour
p5512
(lp5513
I0
aI86400
asVlocation
p5514
(lp5515
F116.320817
aF39.950954
asVaddress
p5516
V\u5317\u4eac\u5e02\u6d77\u6dc0\u533a\u4e07\u5bff\u5bfa\u8def\u75321\u53f7
p5517
sVcreated_time
p5518
L1426145473758L
sV_id
p5519
g5493
sVtype
p5520
Vcvs
p5521
ssg1
(g2
g3
Ntp5522
Rp5523
S'U\x01@\xc1w\x8d\x17\x15\xb9B\x12\xe7'
p5524
b(dp5525
Vstatus
p5526
Vopen
p5527
sVname
p5528
V\u957f\u6c99\u5e08\u8303\u5b66\u9662\u4e3b\u6821\u533a
p5529
sVschool_district
p5530
g1
(g2
g3
Ntp5531
Rp5532
S'U\x01@\xbfw\x8d\x17\x15\xb9B\x0e\xf4'
p5533
bsVmobile
p5534
V15399817082
p5535
sVmin_cost_to_deliver
p5536
I0
sVdelivery_price
p5537
I100
sVimage_id
p5538
g1
(g2
g3
Ntp5539
Rp5540
S'U\x01@\xacw\x8d\x17\x15\xb9B\r\xfd'
p5541
bsVopen_hour
p5542
(lp5543
I0
aI86400
asVlocation
p5544
(lp5545
F113.091121
aF28.263021
asVaddress
p5546
V\u6e56\u5357\u7701\u957f\u6c99\u5e02\u957f\u6c99\u53bf\u7070\u57e0\u8def87\u53f7
p5547
sVcreated_time
p5548
L1426145473862L
sV_id
p5549
g5523
sVtype
p5550
Vcvs
p5551
ssg1
(g2
g3
Ntp5552
Rp5553
S'U\x01@\xc1w\x8d\x17\x15\xb9B\x12\xd7'
p5554
b(dp5555
Vstatus
p5556
Vopen
p5557
sVname
p5558
V\u6b66\u6c49\u79d1\u6280\u5927\u5b66\u57ce\u5e02\u5b66\u9662\u4e3b\u6821\u533a
p5559
sVschool_district
p5560
g1
(g2
g3
Ntp5561
Rp5562
S'U\x01@\xbfw\x8d\x17\x15\xb9B\x0e\xf2'
p5563
bsVmobile
p5564
V13971050902
p5565
sVmin_cost_to_deliver
p5566
I0
sVdelivery_price
p5567
I100
sVimage_id
p5568
g1
(g2
g3
Ntp5569
Rp5570
S'U\x01@\xacw\x8d\x17\x15\xb9B\r\xfd'
p5571
bsVopen_hour
p5572
(lp5573
I0
aI86400
asVlocation
p5574
(lp5575
F114.432914
aF30.591851
asVaddress
p5576
V\u6e56\u5317\u7701\u6b66\u6c49\u5e02\u6d2a\u5c71\u533a\u96c1\u4e2d\u8def
p5577
sVcreated_time
p5578
L1426145473856L
sV_id
p5579
g5553
sVtype
p5580
Vcvs
p5581
ssg1
(g2
g3
Ntp5582
Rp5583
S'U\x01@\xc1w\x8d\x17\x15\xb9B\x10g'
p5584
b(dp5585
Vstatus
p5586
Vopen
p5587
sVname
p5588
V\u897f\u85cf\u5927\u5b66\u6797\u829d\u6821\u533a
p5589
sVschool_district
p5590
g1
(g2
g3
Ntp5591
Rp5592
S'U\x01@\xb9w\x8d\x17\x15\xb9B\x0e\xa3'
p5593
bsVmobile
p5594
V13228945239
p5595
sVmin_cost_to_deliver
p5596
I0
sVdelivery_price
p5597
I100
sVimage_id
p5598
g1
(g2
g3
Ntp5599
Rp5600
S'U\x01@\xacw\x8d\x17\x15\xb9B\r\xfd'
p5601
bsVopen_hour
p5602
(lp5603
I0
aI86400
asVlocation
p5604
(lp5605
F94.342919
aF29.664045
asVaddress
p5606
V\u897f\u85cf\u81ea\u6cbb\u533a\u6797\u829d\u5730\u533a\u6797\u829d\u53bf
p5607
sVcreated_time
p5608
L1426145473656L
sV_id
p5609
g5583
sVtype
p5610
Vcvs
p5611
ssg1
(g2
g3
Ntp5612
Rp5613
S'U\x01@\xc1w\x8d\x17\x15\xb9B\x13/'
p5614
b(dp5615
Vstatus
p5616
Vopen
p5617
sVname
p5618
V\u5317\u4eac\u7535\u5b50\u79d1\u6280\u804c\u4e1a\u5b66\u9662\u4ea6\u5e84\u6821\u533a
p5619
sVschool_district
p5620
g1
(g2
g3
Ntp5621
Rp5622
S'U\x01@\xadw\x8d\x17\x15\xb9B\x0e\x06'
p5623
bsVmobile
p5624
V15712869299
p5625
sVmin_cost_to_deliver
p5626
I0
sVdelivery_price
p5627
I100
sVimage_id
p5628
g1
(g2
g3
Ntp5629
Rp5630
S'U\x01@\xacw\x8d\x17\x15\xb9B\r\xfd'
p5631
bsVopen_hour
p5632
(lp5633
I0
aI86400
asVlocation
p5634
(lp5635
F116.508979
aF39.770317
asVaddress
p5636
V\u5317\u4eac\u5e02\u5927\u5174\u533a\u535a\u5174\u4e03\u8def
p5637
sVcreated_time
p5638
L1426145473886L
sV_id
p5639
g5613
sVtype
p5640
Vcvs
p5641
ssg1
(g2
g3
Ntp5642
Rp5643
S'U\x01@\xc1w\x8d\x17\x15\xb9B\x11\x97'
p5644
b(dp5645
Vstatus
p5646
Vopen
p5647
sVname
p5648
V\u534e\u5317\u7535\u529b\u4e3b\u6821\u533a
p5649
sVschool_district
p5650
g1
(g2
g3
Ntp5651
Rp5652
S'U\x01@\xbcw\x8d\x17\x15\xb9B\x0e\xc9'
p5653
bsVmobile
p5654
V17701250860
p5655
sVmin_cost_to_deliver
p5656
I0
sVdelivery_price
p5657
I100
sVimage_id
p5658
g1
(g2
g3
Ntp5659
Rp5660
S'U\x01@\xacw\x8d\x17\x15\xb9B\r\xfd'
p5661
bsVopen_hour
p5662
(lp5663
I0
aI86400
asVlocation
p5664
(lp5665
F116.308372
aF40.088825
asVaddress
p5666
V\u5317\u4eac\u5e02\u660c\u5e73\u533ag6
p5667
sVcreated_time
p5668
L1426145473755L
sV_id
p5669
g5643
sVtype
p5670
Vcvs
p5671
ssg1
(g2
g3
Ntp5672
Rp5673
S'U\x01@\xc1w\x8d\x17\x15\xb9B\x10o'
p5674
b(dp5675
Vstatus
p5676
Vopen
p5677
sVname
p5678
V\u897f\u534e\u5927\u5b66\u90eb\u53bf\u6821\u533a
p5679
sVschool_district
p5680
g1
(g2
g3
Ntp5681
Rp5682
S'U\x01@\xb9w\x8d\x17\x15\xb9B\x0e\xa4'
p5683
bsVmobile
p5684
V18408245795
p5685
sVmin_cost_to_deliver
p5686
I0
sVdelivery_price
p5687
I100
sVimage_id
p5688
g1
(g2
g3
Ntp5689
Rp5690
S'U\x01@\xacw\x8d\x17\x15\xb9B\r\xfd'
p5691
bsVopen_hour
p5692
(lp5693
I0
aI86400
asVlocation
p5694
(lp5695
F103.954667
aF30.778021
asVaddress
p5696
V\u56db\u5ddd\u7701\u6210\u90fd\u5e02\u90eb\u53bfg317
p5697
sVcreated_time
p5698
L1426145473658L
sV_id
p5699
g5673
sVtype
p5700
Vcvs
p5701
ssg1
(g2
g3
Ntp5702
Rp5703
S'U\x01@\xc1w\x8d\x17\x15\xb9B\x13W'
p5704
b(dp5705
Vstatus
p5706
Vopen
p5707
sVname
p5708
V\u6210\u90fd\u4fe1\u606f\u5de5\u7a0b\u5b66\u9662\u822a\u7a7a\u6e2f\u6821\u533a
p5709
sVschool_district
p5710
g1
(g2
g3
Ntp5711
Rp5712
S'U\x01@\xadw\x8d\x17\x15\xb9B\x0e\x0b'
p5713
bsVmobile
p5714
V15680983995
p5715
sVmin_cost_to_deliver
p5716
I0
sVdelivery_price
p5717
I100
sVimage_id
p5718
g1
(g2
g3
Ntp5719
Rp5720
S'U\x01@\xacw\x8d\x17\x15\xb9B\r\xfd'
p5721
bsVopen_hour
p5722
(lp5723
I0
aI86400
asVlocation
p5724
(lp5725
F103.989658
aF30.579969
asVaddress
p5726
V\u56db\u5ddd\u7701\u6210\u90fd\u5e02\u53cc\u6d41\u53bf\u5357\u4e94\u8857100\u53f7
p5727
sVcreated_time
p5728
L1426145473900L
sV_id
p5729
g5703
sVtype
p5730
Vcvs
p5731
ssg1
(g2
g3
Ntp5732
Rp5733
S'U\x01@\xc1w\x8d\x17\x15\xb9B\x11\xef'
p5734
b(dp5735
Vstatus
p5736
Vopen
p5737
sVname
p5738
V\u5b89\u5fbd\u7406\u5de5\u5927\u5b66\u6821\u672c\u90e8
p5739
sVschool_district
p5740
g1
(g2
g3
Ntp5741
Rp5742
S'U\x01@\xbdw\x8d\x17\x15\xb9B\x0e\xd4'
p5743
bsVmobile
p5744
V13155483970
p5745
sVmin_cost_to_deliver
p5746
I0
sVdelivery_price
p5747
I100
sVimage_id
p5748
g1
(g2
g3
Ntp5749
Rp5750
S'U\x01@\xacw\x8d\x17\x15\xb9B\r\xfd'
p5751
bsVopen_hour
p5752
(lp5753
I0
aI86400
asVlocation
p5754
(lp5755
F117.006562
aF32.652438
asVaddress
p5756
V\u5b89\u5fbd\u7701\u6dee\u5357\u5e02\u7530\u5bb6\u5eb5\u533a\u56fd\u5e86\u897f\u8def
p5757
sVcreated_time
p5758
L1426145473784L
sV_id
p5759
g5733
sVtype
p5760
Vcvs
p5761
ssg1
(g2
g3
Ntp5762
Rp5763
S'U\x01@\xc1w\x8d\x17\x15\xb9B\x10\x17'
p5764
b(dp5765
Vstatus
p5766
Vopen
p5767
sVname
p5768
V\u6c5f\u897f\u4ea4\u901a\u804c\u4e1a\u6280\u672f\u5b66\u9662\u4e3b\u6821\u533a
p5769
sVschool_district
p5770
g1
(g2
g3
Ntp5771
Rp5772
S'U\x01@\xb3w\x8d\x17\x15\xb9B\x0eV'
p5773
bsVmobile
p5774
V18797813365
p5775
sVmin_cost_to_deliver
p5776
I0
sVdelivery_price
p5777
I100
sVimage_id
p5778
g1
(g2
g3
Ntp5779
Rp5780
S'U\x01@\xacw\x8d\x17\x15\xb9B\r\xfd'
p5781
bsVopen_hour
p5782
(lp5783
I0
aI86400
asVlocation
p5784
(lp5785
F115.85924
aF28.733853
asVaddress
p5786
V\u6c5f\u897f\u7701\u5357\u660c\u5e02\u9752\u5c71\u6e56\u533a\u5b54\u76ee\u6e56\u5927\u8857
p5787
sVcreated_time
p5788
L1426145473634L
sV_id
p5789
g5763
sVtype
p5790
Vcvs
p5791
ssg1
(g2
g3
Ntp5792
Rp5793
S'U\x01@\xc1w\x8d\x17\x15\xb9B\x13_'
p5794
b(dp5795
Vstatus
p5796
Vopen
p5797
sVname
p5798
V\u6c60\u5dde\u5b66\u9662\u4e3b\u6821\u533a
p5799
sVschool_district
p5800
g1
(g2
g3
Ntp5801
Rp5802
S'U\x01@\xadw\x8d\x17\x15\xb9B\x0e\x0c'
p5803
bsVmobile
p5804
V15212886807
p5805
sVmin_cost_to_deliver
p5806
I0
sVdelivery_price
p5807
I100
sVimage_id
p5808
g1
(g2
g3
Ntp5809
Rp5810
S'U\x01@\xacw\x8d\x17\x15\xb9B\r\xfd'
p5811
bsVopen_hour
p5812
(lp5813
I0
aI86400
asVlocation
p5814
(lp5815
F117.567615
aF30.643358
asVaddress
p5816
V\u5b89\u5fbd\u7701\u6c60\u5dde\u5e02\u8d35\u6c60\u533a\u7267\u4e4b\u8def
p5817
sVcreated_time
p5818
L1426145473903L
sV_id
p5819
g5793
sVtype
p5820
Vcvs
p5821
ssg1
(g2
g3
Ntp5822
Rp5823
S'U\x01@\xc1w\x8d\x17\x15\xb9B\x11\xe7'
p5824
b(dp5825
Vstatus
p5826
Vopen
p5827
sVname
p5828
V\u5b89\u5fbd\u5de5\u4e1a\u5927\u5b66\u6821\u672c\u90e8
p5829
sVschool_district
p5830
g1
(g2
g3
Ntp5831
Rp5832
S'U\x01@\xbdw\x8d\x17\x15\xb9B\x0e\xd3'
p5833
bsVmobile
p5834
V18355552395
p5835
sVmin_cost_to_deliver
p5836
I0
sVdelivery_price
p5837
I100
sVimage_id
p5838
g1
(g2
g3
Ntp5839
Rp5840
S'U\x01@\xacw\x8d\x17\x15\xb9B\r\xfd'
p5841
bsVopen_hour
p5842
(lp5843
I0
aI86400
asVlocation
p5844
(lp5845
F118.504629
aF31.689102
asVaddress
p5846
V\u5b89\u5fbd\u7701\u9a6c\u978d\u5c71\u5e02\u96e8\u5c71\u533a\u6e56\u897f\u4e2d\u8def1586
p5847
sVcreated_time
p5848
L1426145473781L
sV_id
p5849
g5823
sVtype
p5850
Vcvs
p5851
ssg1
(g2
g3
Ntp5852
Rp5853
S'U\x01@\xc1w\x8d\x17\x15\xb9B\x10\x1f'
p5854
b(dp5855
Vstatus
p5856
Vopen
p5857
sVname
p5858
V\u6606\u660e\u533b\u79d1\u5927\u5b66\u5448\u8d21\u6821\u533a                       
p5859
sVschool_district
p5860
g1
(g2
g3
Ntp5861
Rp5862
S'U\x01@\xb4w\x8d\x17\x15\xb9B\x0e`'
p5863
bsVmobile
p5864
V1848710127
p5865
sVmin_cost_to_deliver
p5866
I0
sVdelivery_price
p5867
I100
sVimage_id
p5868
g1
(g2
g3
Ntp5869
Rp5870
S'U\x01@\xacw\x8d\x17\x15\xb9B\r\xfd'
p5871
bsVopen_hour
p5872
(lp5873
I0
aI86400
asVlocation
p5874
(lp5875
F102.825974
aF24.844954
asVaddress
p5876
V\u4e91\u5357\u7701\u6606\u660e\u5e02\u5448\u8d21\u533as102
p5877
sVcreated_time
p5878
L1426145473636L
sV_id
p5879
g5853
sVtype
p5880
Vcvs
p5881
ssg1
(g2
g3
Ntp5882
Rp5883
S'U\x01@\xc1w\x8d\x17\x15\xb9B\x12\xc7'
p5884
b(dp5885
Vstatus
p5886
Vopen
p5887
sVname
p5888
V\u8fbd\u5b81\u4e2d\u533b\u836f\u5927\u5b66 \u4e3b\u6821\u533a
p5889
sVschool_district
p5890
g1
(g2
g3
Ntp5891
Rp5892
S'U\x01@\xbfw\x8d\x17\x15\xb9B\x0e\xf0'
p5893
bsVmobile
p5894
V15712373090
p5895
sVmin_cost_to_deliver
p5896
I0
sVdelivery_price
p5897
I100
sVimage_id
p5898
g1
(g2
g3
Ntp5899
Rp5900
S'U\x01@\xacw\x8d\x17\x15\xb9B\r\xfd'
p5901
bsVopen_hour
p5902
(lp5903
I0
aI86400
asVlocation
p5904
(lp5905
F121.886098
aF39.070969
asVaddress
p5906
V\u8fbd\u5b81\u7701\u5927\u8fde\u5e02\u91d1\u5dde\u533a\u751f\u547d\u4e00\u8def
p5907
sVcreated_time
p5908
L1426145473851L
sV_id
p5909
g5883
sVtype
p5910
Vcvs
p5911
ssg1
(g2
g3
Ntp5912
Rp5913
S'U\x01@\xc1w\x8d\x17\x15\xb9B\x13G'
p5914
b(dp5915
Vstatus
p5916
Vopen
p5917
sVname
p5918
V\u5317\u4eac\u4f53\u80b2\u5927\u5b66\u4e3b\u6821\u533a
p5919
sVschool_district
p5920
g1
(g2
g3
Ntp5921
Rp5922
S'U\x01@\xadw\x8d\x17\x15\xb9B\x0e\t'
p5923
bsVmobile
p5924
V18811760766
p5925
sVmin_cost_to_deliver
p5926
I0
sVdelivery_price
p5927
I100
sVimage_id
p5928
g1
(g2
g3
Ntp5929
Rp5930
S'U\x01@\xacw\x8d\x17\x15\xb9B\r\xfd'
p5931
bsVopen_hour
p5932
(lp5933
I0
aI86400
asVlocation
p5934
(lp5935
F116.318772
aF40.024197
asVaddress
p5936
V\u5317\u4eac\u5e02\u6d77\u6dc0\u533a\u5c0f\u6e05\u6cb3\u8def
p5937
sVcreated_time
p5938
L1426145473895L
sV_id
p5939
g5913
sVtype
p5940
Vcvs
p5941
ssg1
(g2
g3
Ntp5942
Rp5943
S'U\x01@\xc1w\x8d\x17\x15\xb9B\x11\xff'
p5944
b(dp5945
Vstatus
p5946
Vopen
p5947
sVname
p5948
V\u5b89\u5fbd\u5de5\u7a0b\u5927\u5b66\u4e3b\u6821\u533a
p5949
sVschool_district
p5950
g1
(g2
g3
Ntp5951
Rp5952
S'U\x01@\xbdw\x8d\x17\x15\xb9B\x0e\xd6'
p5953
bsVmobile
p5954
V18656323175
p5955
sVmin_cost_to_deliver
p5956
I0
sVdelivery_price
p5957
I100
sVimage_id
p5958
g1
(g2
g3
Ntp5959
Rp5960
S'U\x01@\xacw\x8d\x17\x15\xb9B\r\xfd'
p5961
bsVopen_hour
p5962
(lp5963
I0
aI86400
asVlocation
p5964
(lp5965
F118.411481
aF31.33876
asVaddress
p5966
V\u5b89\u5fbd\u7701\u829c\u6e56\u5e02\u9e20\u6c5f\u533a\u5317\u4eac\u4e2d\u8def
p5967
sVcreated_time
p5968
L1426145473789L
sV_id
p5969
g5943
sVtype
p5970
Vcvs
p5971
ssg1
(g2
g3
Ntp5972
Rp5973
S'U\x01@\xc1w\x8d\x17\x15\xb9B\x10\x07'
p5974
b(dp5975
Vstatus
p5976
Vopen
p5977
sVname
p5978
V\u6c5f\u897f\u7535\u529b\u804c\u4e1a\u6280\u672f\u5b66\u9662\u4e3b\u6821\u533a
p5979
sVschool_district
p5980
g1
(g2
g3
Ntp5981
Rp5982
S'U\x01@\xb3w\x8d\x17\x15\xb9B\x0eT'
p5983
bsVmobile
p5984
V15970907064
p5985
sVmin_cost_to_deliver
p5986
I0
sVdelivery_price
p5987
I100
sVimage_id
p5988
g1
(g2
g3
Ntp5989
Rp5990
S'U\x01@\xacw\x8d\x17\x15\xb9B\r\xfd'
p5991
bsVopen_hour
p5992
(lp5993
I0
aI86400
asVlocation
p5994
(lp5995
F115.808774
aF28.718109
asVaddress
p5996
V\u6c5f\u897f\u7701\u5357\u660c\u5e02\u65b0\u5efa\u53bf\u9ec4\u5bb6\u6e56\u897f\u8def
p5997
sVcreated_time
p5998
L1426145473629L
sV_id
p5999
g5973
sVtype
p6000
Vcvs
p6001
ssg1
(g2
g3
Ntp6002
Rp6003
S'U\x01@\xc1w\x8d\x17\x15\xb9B\x13O'
p6004
b(dp6005
Vstatus
p6006
Vopen
p6007
sVname
p6008
V\u5e38\u5dde\u673a\u7535\u804c\u4e1a\u6280\u672f\u5b66\u9662\u4e3b\u6821\u533a
p6009
sVschool_district
p6010
g1
(g2
g3
Ntp6011
Rp6012
S'U\x01@\xadw\x8d\x17\x15\xb9B\x0e\n'
p6013
bsVmobile
p6014
V15862025715
p6015
sVmin_cost_to_deliver
p6016
I0
sVdelivery_price
p6017
I100
sVimage_id
p6018
g1
(g2
g3
Ntp6019
Rp6020
S'U\x01@\xacw\x8d\x17\x15\xb9B\r\xfd'
p6021
bsVopen_hour
p6022
(lp6023
I0
aI86400
asVlocation
p6024
(lp6025
F119.947549
aF31.678511
asVaddress
p6026
V\u6c5f\u82cf\u7701\u5e38\u5dde\u5e02\u6b66\u8fdb\u533a\u5efa\u9547\u5317\u8def
p6027
sVcreated_time
p6028
L1426145473898L
sV_id
p6029
g6003
sVtype
p6030
Vcvs
p6031
ssg1
(g2
g3
Ntp6032
Rp6033
S'U\x01@\xc1w\x8d\x17\x15\xb9B\x11\xf7'
p6034
b(dp6035
Vstatus
p6036
Vopen
p6037
sVname
p6038
V\u5b89\u5fbd\u7406\u5de5\u5927\u5b66\u5317\u6821\u533a
p6039
sVschool_district
p6040
g1
(g2
g3
Ntp6041
Rp6042
S'U\x01@\xbdw\x8d\x17\x15\xb9B\x0e\xd5'
p6043
bsVmobile
p6044
V15855411500
p6045
sVmin_cost_to_deliver
p6046
I0
sVdelivery_price
p6047
I100
sVimage_id
p6048
g1
(g2
g3
Ntp6049
Rp6050
S'U\x01@\xacw\x8d\x17\x15\xb9B\r\xfd'
p6051
bsVopen_hour
p6052
(lp6053
I0
aI86400
asVlocation
p6054
(lp6055
F117.005403
aF32.652998
asVaddress
p6056
V\u5b89\u5fbd\u7701\u6dee\u5357\u5e02\u7530\u5bb6\u5eb5\u533a\u56fd\u5e86\u897f\u8def
p6057
sVcreated_time
p6058
L1426145473786L
sV_id
p6059
g6033
sVtype
p6060
Vcvs
p6061
ssg1
(g2
g3
Ntp6062
Rp6063
S'U\x01@\xc1w\x8d\x17\x15\xb9B\x10\x0f'
p6064
b(dp6065
Vstatus
p6066
Vopen
p6067
sVname
p6068
V\u6c5f\u897f\u5de5\u4e1a\u8d38\u6613\u804c\u4e1a\u6280\u672f\u5b66\u9662\u4e3b\u6821\u533a
p6069
sVschool_district
p6070
g1
(g2
g3
Ntp6071
Rp6072
S'U\x01@\xb3w\x8d\x17\x15\xb9B\x0eU'
p6073
bsVmobile
p6074
V15170216784
p6075
sVmin_cost_to_deliver
p6076
I0
sVdelivery_price
p6077
I100
sVimage_id
p6078
g1
(g2
g3
Ntp6079
Rp6080
S'U\x01@\xacw\x8d\x17\x15\xb9B\r\xfd'
p6081
bsVopen_hour
p6082
(lp6083
I0
aI86400
asVlocation
p6084
(lp6085
F115.788399
aF28.655456
asVaddress
p6086
V\u6c5f\u897f\u7701\u5357\u660c\u5e02\u65b0\u5efa\u53bf\u5609\u8a00\u8def
p6087
sVcreated_time
p6088
L1426145473631L
sV_id
p6089
g6063
sVtype
p6090
Vcvs
p6091
ssg1
(g2
g3
Ntp6092
Rp6093
S'U\x01@\xc1w\x8d\x17\x15\xb9B\x13w'
p6094
b(dp6095
Vstatus
p6096
Vopen
p6097
sVname
p6098
V\u5927\u7406\u5b66\u9662\u4e3b\u6821\u533a
p6099
sVschool_district
p6100
g1
(g2
g3
Ntp6101
Rp6102
S'U\x01@\xaew\x8d\x17\x15\xb9B\x0e\x0f'
p6103
bsVmobile
p6104
V18313004783
p6105
sVmin_cost_to_deliver
p6106
I0
sVdelivery_price
p6107
I100
sVimage_id
p6108
g1
(g2
g3
Ntp6109
Rp6110
S'U\x01@\xacw\x8d\x17\x15\xb9B\r\xfd'
p6111
bsVopen_hour
p6112
(lp6113
I0
aI86400
asVlocation
p6114
(lp6115
F100.156006
aF25.671916
asVaddress
p6116
V\u4e91\u5357\u7701\u5927\u7406\u767d\u65cf\u81ea\u6cbb\u5dde\u5927\u7406\u5e02
p6117
sVcreated_time
p6118
L1426145473910L
sV_id
p6119
g6093
sVtype
p6120
Vcvs
p6121
ssg1
(g2
g3
Ntp6122
Rp6123
S'U\x01@\xc1w\x8d\x17\x15\xb9B\x11\xcf'
p6124
b(dp6125
Vstatus
p6126
Vopen
p6127
sVname
p6128
V\u77f3\u5bb6\u5e84\u94c1\u8def\u804c\u4e1a\u6280\u672f\u5b66\u9662\u6821\u672c\u90e8
p6129
sVschool_district
p6130
g1
(g2
g3
Ntp6131
Rp6132
S'U\x01@\xbcw\x8d\x17\x15\xb9B\x0e\xd0'
p6133
bsVmobile
p6134
V15733183727
p6135
sVmin_cost_to_deliver
p6136
I0
sVdelivery_price
p6137
I100
sVimage_id
p6138
g1
(g2
g3
Ntp6139
Rp6140
S'U\x01@\xacw\x8d\x17\x15\xb9B\r\xfd'
p6141
bsVopen_hour
p6142
(lp6143
I0
aI86400
asVlocation
p6144
(lp6145
F114.526366
aF38.088774
asVaddress
p6146
V\u6cb3\u5317\u7701\u77f3\u5bb6\u5e84\u5e02\u6865\u4e1c\u533a\u6843\u56ed\u8def
p6147
sVcreated_time
p6148
L1426145473773L
sV_id
p6149
g6123
sVtype
p6150
Vcvs
p6151
ssg1
(g2
g3
Ntp6152
Rp6153
S'U\x01@\xc1w\x8d\x17\x15\xb9B\x12\xef'
p6154
b(dp6155
Vstatus
p6156
Vopen
p6157
sVname
p6158
V\u4e91\u5357\u7ecf\u6d4e\u7ba1\u7406\u5b66\u9662\u4e3b\u6821\u533a
p6159
sVschool_district
p6160
g1
(g2
g3
Ntp6161
Rp6162
S'U\x01@\xbfw\x8d\x17\x15\xb9B\x0e\xf6'
p6163
bsVmobile
p6164
V15687866269
p6165
sVmin_cost_to_deliver
p6166
I0
sVdelivery_price
p6167
I100
sVimage_id
p6168
g1
(g2
g3
Ntp6169
Rp6170
S'U\x01@\xacw\x8d\x17\x15\xb9B\r\xfd'
p6171
bsVopen_hour
p6172
(lp6173
I0
aI86400
asVlocation
p6174
(lp6175
F102.658065
aF25.09362
asVaddress
p6176
V\u4e91\u5357\u7701\u6606\u660e\u5e02\u4e94\u534e\u533a\u5546\u9662\u8def
p6177
sVcreated_time
p6178
L1426145473864L
sV_id
p6179
g6153
sVtype
p6180
Vcvs
p6181
ssg1
(g2
g3
Ntp6182
Rp6183
S'U\x01@\xc1w\x8d\x17\x15\xb9B\x107'
p6184
b(dp6185
Vstatus
p6186
Vopen
p6187
sVname
p6188
V\u5357\u4eac\u90ae\u7535\u5927\u5b66\u901a\u8fbe\u5b66\u9662\u626c\u5dde\u6821\u533a
p6189
sVschool_district
p6190
g1
(g2
g3
Ntp6191
Rp6192
S'U\x01@\xb5w\x8d\x17\x15\xb9B\x0ei'
p6193
bsVmobile
p6194
V13024338552
p6195
sVmin_cost_to_deliver
p6196
I0
sVdelivery_price
p6197
I100
sVimage_id
p6198
g1
(g2
g3
Ntp6199
Rp6200
S'U\x01@\xacw\x8d\x17\x15\xb9B\r\xfd'
p6201
bsVopen_hour
p6202
(lp6203
I0
aI86400
asVlocation
p6204
(lp6205
F119.402675
aF32.329062
asVaddress
p6206
V\u6c5f\u82cf\u7701\u626c\u5dde\u5e02\u9097\u6c5f\u533a\u6da6\u626c\u5357\u8def
p6207
sVcreated_time
p6208
L1426145473642L
sV_id
p6209
g6183
sVtype
p6210
Vcvs
p6211
ssg1
(g2
g3
Ntp6212
Rp6213
S'U\x01@\xc1w\x8d\x17\x15\xb9B\x13\x7f'
p6214
b(dp6215
Vstatus
p6216
Vopen
p6217
sVname
p6218
V\u5927\u8fde\u5927\u5b66\u4e3b\u6821\u533a
p6219
sVschool_district
p6220
g1
(g2
g3
Ntp6221
Rp6222
S'U\x01@\xaew\x8d\x17\x15\xb9B\x0e\x10'
p6223
bsVmobile
p6224
V18842648331
p6225
sVmin_cost_to_deliver
p6226
I0
sVdelivery_price
p6227
I100
sVimage_id
p6228
g1
(g2
g3
Ntp6229
Rp6230
S'U\x01@\xacw\x8d\x17\x15\xb9B\r\xfd'
p6231
bsVopen_hour
p6232
(lp6233
I0
aI86400
asVlocation
p6234
(lp6235
F121.820246
aF39.099726
asVaddress
p6236
V\u8fbd\u5b81\u7701\u5927\u8fde\u5e02\u91d1\u5dde\u533a\u5b66\u5e9c\u5357\u8857
p6237
sVcreated_time
p6238
L1426145473912L
sV_id
p6239
g6213
sVtype
p6240
Vcvs
p6241
ssg1
(g2
g3
Ntp6242
Rp6243
S'U\x01@\xc1w\x8d\x17\x15\xb9B\x11\xc7'
p6244
b(dp6245
Vstatus
p6246
Vopen
p6247
sVname
p6248
V\u90a2\u53f0\u533b\u4e13\u9ad8\u7b49\u4e13\u79d1\u5b66\u6821\u6821\u672c\u90e8
p6249
sVschool_district
p6250
g1
(g2
g3
Ntp6251
Rp6252
S'U\x01@\xbcw\x8d\x17\x15\xb9B\x0e\xcf'
p6253
bsVmobile
p6254
V15532915987
p6255
sVmin_cost_to_deliver
p6256
I0
sVdelivery_price
p6257
I100
sVimage_id
p6258
g1
(g2
g3
Ntp6259
Rp6260
S'U\x01@\xacw\x8d\x17\x15\xb9B\r\xfd'
p6261
bsVopen_hour
p6262
(lp6263
I0
aI86400
asVlocation
p6264
(lp6265
F114.463288
aF37.088908
asVaddress
p6266
V\u6cb3\u5317\u7701\u90a2\u53f0\u5e02\u6865\u897f\u533a\u6cc9\u5357\u897f\u5927\u8857
p6267
sVcreated_time
p6268
L1426145473770L
sV_id
p6269
g6243
sVtype
p6270
Vcvs
p6271
ssg1
(g2
g3
Ntp6272
Rp6273
S'U\x01@\xc1w\x8d\x17\x15\xb9B\x10?'
p6274
b(dp6275
Vstatus
p6276
Vopen
p6277
sVname
p6278
V\u5185\u8499\u53e4\u5de5\u4e1a\u5927\u5b66\u65b0\u57ce\u6821\u533a
p6279
sVschool_district
p6280
g1
(g2
g3
Ntp6281
Rp6282
S'U\x01@\xb5w\x8d\x17\x15\xb9B\x0ek'
p6283
bsVmobile
p6284
V18504816041
p6285
sVmin_cost_to_deliver
p6286
I0
sVdelivery_price
p6287
I100
sVimage_id
p6288
g1
(g2
g3
Ntp6289
Rp6290
S'U\x01@\xacw\x8d\x17\x15\xb9B\r\xfd'
p6291
bsVopen_hour
p6292
(lp6293
I0
aI86400
asVlocation
p6294
(lp6295
F111.682075
aF40.844593
asVaddress
p6296
V\u5185\u8499\u53e4\u81ea\u6cbb\u533a\u547c\u548c\u6d69\u7279\u5e02\u65b0\u57ce\u533a\u6d77\u62c9\u5c14\u5927\u885741\u53f7
p6297
sVcreated_time
p6298
L1426145473645L
sV_id
p6299
g6273
sVtype
p6300
Vcvs
p6301
ssg1
(g2
g3
Ntp6302
Rp6303
S'U\x01@\xc1w\x8d\x17\x15\xb9B\x13g'
p6304
b(dp6305
Vstatus
p6306
Vopen
p6307
sVname
p6308
V\u5ddd\u5317\u533b\u5b66\u9662\u9ad8\u576a\u6821\u533a
p6309
sVschool_district
p6310
g1
(g2
g3
Ntp6311
Rp6312
S'U\x01@\xaew\x8d\x17\x15\xb9B\x0e\r'
p6313
bsVmobile
p6314
V13036562560
p6315
sVmin_cost_to_deliver
p6316
I0
sVdelivery_price
p6317
I100
sVimage_id
p6318
g1
(g2
g3
Ntp6319
Rp6320
S'U\x01@\xacw\x8d\x17\x15\xb9B\r\xfd'
p6321
bsVopen_hour
p6322
(lp6323
I0
aI86400
asVlocation
p6324
(lp6325
F106.1281
aF30.779008
asVaddress
p6326
V\u56db\u5ddd\u7701\u5357\u5145\u5e02\u9ad8\u576a\u533a\u5efa\u8bbe\u8def
p6327
sVcreated_time
p6328
L1426145473905L
sV_id
p6329
g6303
sVtype
p6330
Vcvs
p6331
ssg1
(g2
g3
Ntp6332
Rp6333
S'U\x01@\xc1w\x8d\x17\x15\xb9B\x11\xdf'
p6334
b(dp6335
Vstatus
p6336
Vopen
p6337
sVname
p6338
V\u5185\u8499\u53e4\u8d22\u7ecf\u5b66\u9662\u897f\u6821\u533a
p6339
sVschool_district
p6340
g1
(g2
g3
Ntp6341
Rp6342
S'U\x01@\xbdw\x8d\x17\x15\xb9B\x0e\xd2'
p6343
bsVmobile
p6344
V15248223932
p6345
sVmin_cost_to_deliver
p6346
I0
sVdelivery_price
p6347
I100
sVimage_id
p6348
g1
(g2
g3
Ntp6349
Rp6350
S'U\x01@\xacw\x8d\x17\x15\xb9B\r\xfd'
p6351
bsVopen_hour
p6352
(lp6353
I0
aI86400
asVlocation
p6354
(lp6355
F111.629398
aF40.856328
asVaddress
p6356
V\u5185\u8499\u53e4\u81ea\u6cbb\u533a\u547c\u548c\u6d69\u7279\u5e02\u56de\u6c11\u533a\u5317\u4e8c\u73af\u8def
p6357
sVcreated_time
p6358
L1426145473778L
sV_id
p6359
g6333
sVtype
p6360
Vcvs
p6361
ssg1
(g2
g3
Ntp6362
Rp6363
S"U\x01@\xc1w\x8d\x17\x15\xb9B\x10'"
p6364
b(dp6365
Vstatus
p6366
Vopen
p6367
sVname
p6368
V\u5357\u4eac\u5de5\u4e1a\u804c\u4e1a\u6280\u672f\u5b66\u9662\u4ed9\u6797\u6821\u533a
p6369
sVschool_district
p6370
g1
(g2
g3
Ntp6371
Rp6372
S'U\x01@\xb4w\x8d\x17\x15\xb9B\x0ef'
p6373
bsVmobile
p6374
V18751893592
p6375
sVmin_cost_to_deliver
p6376
I0
sVdelivery_price
p6377
I100
sVimage_id
p6378
g1
(g2
g3
Ntp6379
Rp6380
S'U\x01@\xacw\x8d\x17\x15\xb9B\r\xfd'
p6381
bsVopen_hour
p6382
(lp6383
I0
aI86400
asVlocation
p6384
(lp6385
F118.940326
aF32.120255
asVaddress
p6386
V\u6c5f\u82cf\u7701\u5357\u4eac\u5e02\u6816\u971e\u533a\u4ed9\u5883\u8def
p6387
sVcreated_time
p6388
L1426145473638L
sV_id
p6389
g6363
sVtype
p6390
Vcvs
p6391
ssg1
(g2
g3
Ntp6392
Rp6393
S'U\x01@\xc1w\x8d\x17\x15\xb9B\x13o'
p6394
b(dp6395
Vstatus
p6396
Vopen
p6397
sVname
p6398
V\u5ddd\u5317\u533b\u5b66\u9662\u6daa\u6c5f\u8def\u6821\u533a
p6399
sVschool_district
p6400
g1
(g2
g3
Ntp6401
Rp6402
S'U\x01@\xaew\x8d\x17\x15\xb9B\x0e\x0e'
p6403
bsVmobile
p6404
V15983792093
p6405
sVmin_cost_to_deliver
p6406
I0
sVdelivery_price
p6407
I100
sVimage_id
p6408
g1
(g2
g3
Ntp6409
Rp6410
S'U\x01@\xacw\x8d\x17\x15\xb9B\r\xfd'
p6411
bsVopen_hour
p6412
(lp6413
I0
aI86400
asVlocation
p6414
(lp6415
F115.043162
aF38.666346
asVaddress
p6416
V\u6cb3\u5317\u7701\u4fdd\u5b9a\u5e02\u5510\u53bf
p6417
sVcreated_time
p6418
L1426145473907L
sV_id
p6419
g6393
sVtype
p6420
Vcvs
p6421
ssg1
(g2
g3
Ntp6422
Rp6423
S'U\x01@\xc1w\x8d\x17\x15\xb9B\x11\xd7'
p6424
b(dp6425
Vstatus
p6426
Vopen
p6427
sVname
p6428
V\u534e\u5317\u79d1\u6280\u5b66\u9662\u4e3b\u6821\u533a
p6429
sVschool_district
p6430
g1
(g2
g3
Ntp6431
Rp6432
S'U\x01@\xbdw\x8d\x17\x15\xb9B\x0e\xd1'
p6433
bsVmobile
p6434
V13210440861
p6435
sVmin_cost_to_deliver
p6436
I0
sVdelivery_price
p6437
I100
sVimage_id
p6438
g1
(g2
g3
Ntp6439
Rp6440
S'U\x01@\xacw\x8d\x17\x15\xb9B\r\xfd'
p6441
bsVopen_hour
p6442
(lp6443
I0
aI86400
asVlocation
p6444
(lp6445
F116.804656
aF39.953775
asVaddress
p6446
V\u6cb3\u5317\u7701\u5eca\u574a\u5e02\u4e09\u6cb3\u5e02\u884c\u5bab\u897f\u5927\u885728
p6447
sVcreated_time
p6448
L1426145473775L
sV_id
p6449
g6423
sVtype
p6450
Vcvs
p6451
ssg1
(g2
g3
Ntp6452
Rp6453
S'U\x01@\xc1w\x8d\x17\x15\xb9B\x10/'
p6454
b(dp6455
Vstatus
p6456
Vopen
p6457
sVname
p6458
V\u5357\u4eac\u4ea4\u901a\u804c\u4e1a\u6280\u672f\u5b66\u9662\u6c5f\u5b81\u6821\u533a
p6459
sVschool_district
p6460
g1
(g2
g3
Ntp6461
Rp6462
S'U\x01@\xb5w\x8d\x17\x15\xb9B\x0eg'
p6463
bsVmobile
p6464
V15951718657
p6465
sVmin_cost_to_deliver
p6466
I0
sVdelivery_price
p6467
I100
sVimage_id
p6468
g1
(g2
g3
Ntp6469
Rp6470
S'U\x01@\xacw\x8d\x17\x15\xb9B\r\xfd'
p6471
bsVopen_hour
p6472
(lp6473
I0
aI86400
asVlocation
p6474
(lp6475
F118.917358
aF31.911243
asVaddress
p6476
V\u6c5f\u82cf\u7701\u5357\u4eac\u5e02\u6c5f\u5b81\u533a\u9f99\u7720\u5927\u9053
p6477
sVcreated_time
p6478
L1426145473640L
sV_id
p6479
g6453
sVtype
p6480
Vcvs
p6481
ssg1
(g2
g3
Ntp6482
Rp6483
S'U\x01@\xc1w\x8d\x17\x15\xb9B\x13\x97'
p6484
b(dp6485
Vstatus
p6486
Vopen
p6487
sVname
p6488
V\u4e1c\u5317\u5927\u5b66\u4e3b\u6821\u533a
p6489
sVschool_district
p6490
g1
(g2
g3
Ntp6491
Rp6492
S'U\x01@\xaew\x8d\x17\x15\xb9B\x0e\x13'
p6493
bsVmobile
p6494
V17702435351
p6495
sVmin_cost_to_deliver
p6496
I0
sVdelivery_price
p6497
I100
sVimage_id
p6498
g1
(g2
g3
Ntp6499
Rp6500
S'U\x01@\xacw\x8d\x17\x15\xb9B\r\xfd'
p6501
bsVopen_hour
p6502
(lp6503
I0
aI86400
asVlocation
p6504
(lp6505
F123.41938
aF41.766551
asVaddress
p6506
V\u8fbd\u5b81\u7701\u6c88\u9633\u5e02\u548c\u5e73\u533a\u6c88\u6c34\u8def
p6507
sVcreated_time
p6508
L1426145473919L
sV_id
p6509
g6483
sVtype
p6510
Vcvs
p6511
ssg1
(g2
g3
Ntp6512
Rp6513
S'U\x01@\xc1w\x8d\x17\x15\xb9B\x12\xff'
p6514
b(dp6515
Vstatus
p6516
Vopen
p6517
sVname
p6518
V\u5b89\u5fbd\u5efa\u7b51\u5927\u5b66\u5b89\u5357\u533a
p6519
sVschool_district
p6520
g1
(g2
g3
Ntp6521
Rp6522
S'U\x01@\xadw\x8d\x17\x15\xb9B\x0e\x00'
p6523
bsVmobile
p6524
V18315149895
p6525
sVmin_cost_to_deliver
p6526
I0
sVdelivery_price
p6527
I100
sVimage_id
p6528
g1
(g2
g3
Ntp6529
Rp6530
S'U\x01@\xacw\x8d\x17\x15\xb9B\r\xfd'
p6531
bsVopen_hour
p6532
(lp6533
I0
aI86400
asVlocation
p6534
(lp6535
F117.22324
aF31.743515
asVaddress
p6536
V\u5b89\u5fbd\u7701\u5408\u80a5\u5e02\u8700\u5c71\u533a\u6c64\u53e3\u8def
p6537
sVcreated_time
p6538
L1426145473870L
sV_id
p6539
g6513
sVtype
p6540
Vcvs
p6541
ssg1
(g2
g3
Ntp6542
Rp6543
S'U\x01@\xc1w\x8d\x17\x15\xb9B\x11/'
p6544
b(dp6545
Vstatus
p6546
Vopen
p6547
sVname
p6548
V\u957f\u6c99\u6c11\u653f\u804c\u4e1a\u6280\u672f\u5b66\u9662\u4e3b\u6821\u533a
p6549
sVschool_district
p6550
g1
(g2
g3
Ntp6551
Rp6552
S'U\x01@\xbbw\x8d\x17\x15\xb9B\x0e\xbc'
p6553
bsVmobile
p6554
V18390991021
p6555
sVmin_cost_to_deliver
p6556
I0
sVdelivery_price
p6557
I100
sVimage_id
p6558
g1
(g2
g3
Ntp6559
Rp6560
S'U\x01@\xacw\x8d\x17\x15\xb9B\r\xfd'
p6561
bsVopen_hour
p6562
(lp6563
I0
aI86400
asVlocation
p6564
(lp6565
F113.013683
aF28.140479
asVaddress
p6566
V\u6e56\u5357\u7701\u957f\u6c99\u5e02\u96e8\u82b1\u533a\u9999\u6a1f\u8def168\u53f7
p6567
sVcreated_time
p6568
L1426145473723L
sV_id
p6569
g6543
sVtype
p6570
Vcvs
p6571
ssg1
(g2
g3
Ntp6572
Rp6573
S'U\x01@\xc1w\x8d\x17\x15\xb9B\x12\xb7'
p6574
b(dp6575
Vstatus
p6576
Vopen
p6577
sVname
p6578
V\u5e7f\u4e1c\u6280\u672f\u5e08\u8303\u5b66\u9662\u4e3b\u6821\u533a
p6579
sVschool_district
p6580
g1
(g2
g3
Ntp6581
Rp6582
S'U\x01@\xbfw\x8d\x17\x15\xb9B\x0e\xee'
p6583
bsVmobile
p6584
V18819462703
p6585
sVmin_cost_to_deliver
p6586
I0
sVdelivery_price
p6587
I100
sVimage_id
p6588
g1
(g2
g3
Ntp6589
Rp6590
S'U\x01@\xacw\x8d\x17\x15\xb9B\r\xfd'
p6591
bsVopen_hour
p6592
(lp6593
I0
aI86400
asVlocation
p6594
(lp6595
F113.371635
aF23.1317
asVaddress
p6596
V\u5e7f\u4e1c\u7701\u5e7f\u5dde\u5e02\u5929\u6cb3\u533a\u5929\u5e9c\u8def
p6597
sVcreated_time
p6598
L1426145473846L
sV_id
p6599
g6573
sVtype
p6600
Vcvs
p6601
ssg1
(g2
g3
Ntp6602
Rp6603
S'U\x01@\xc1w\x8d\x17\x15\xb9B\x10\xd7'
p6604
b(dp6605
Vstatus
p6606
Vopen
p6607
sVname
p6608
V\u4e91\u5357\u5f00\u653e\u5927\u5b66\u5448\u8d21\u6821\u533a
p6609
sVschool_district
p6610
g1
(g2
g3
Ntp6611
Rp6612
S'U\x01@\xbaw\x8d\x17\x15\xb9B\x0e\xb1'
p6613
bsVmobile
p6614
V15887062958
p6615
sVmin_cost_to_deliver
p6616
I0
sVdelivery_price
p6617
I100
sVimage_id
p6618
g1
(g2
g3
Ntp6619
Rp6620
S'U\x01@\xacw\x8d\x17\x15\xb9B\r\xfd'
p6621
bsVopen_hour
p6622
(lp6623
I0
aI86400
asVlocation
p6624
(lp6625
F102.830947
aF24.819268
asVaddress
p6626
V\u4e91\u5357\u7701\u6606\u660e\u5e02\u5448\u8d21\u533a\u96e8\u82b1\u8def
p6627
sVcreated_time
p6628
L1426145473690L
sV_id
p6629
g6603
sVtype
p6630
Vcvs
p6631
ssg1
(g2
g3
Ntp6632
Rp6633
S'U\x01@\xc1w\x8d\x17\x15\xb9B\x13\x9f'
p6634
b(dp6635
Vstatus
p6636
Vopen
p6637
sVname
p6638
V\u4e1c\u839e\u7406\u5de5\u5b66\u9662\u839e\u57ce\u6821\u533a
p6639
sVschool_district
p6640
g1
(g2
g3
Ntp6641
Rp6642
S'U\x01@\xaew\x8d\x17\x15\xb9B\x0e\x14'
p6643
bsVmobile
p6644
V13559773959
p6645
sVmin_cost_to_deliver
p6646
I0
sVdelivery_price
p6647
I100
sVimage_id
p6648
g1
(g2
g3
Ntp6649
Rp6650
S'U\x01@\xacw\x8d\x17\x15\xb9B\r\xfd'
p6651
bsVopen_hour
p6652
(lp6653
I0
aI86400
asVlocation
p6654
(lp6655
F113.772729
aF23.050306
asVaddress
p6656
V\u5e7f\u4e1c\u7701\u4e1c\u839e\u5e02\u4e1c\u839e\u5e02\u5e02\u8f96\u533a\u4e07\u5174\u8def16
p6657
sVcreated_time
p6658
L1426145473921L
sV_id
p6659
g6633
sVtype
p6660
Vcvs
p6661
ssg1
(g2
g3
Ntp6662
Rp6663
S"U\x01@\xc1w\x8d\x17\x15\xb9B\x11'"
p6664
b(dp6665
Vstatus
p6666
Vopen
p6667
sVname
p6668
V\u957f\u6625\u804c\u4e1a\u6280\u672f\u5b66\u9662\u4e3b\u6821\u533a
p6669
sVschool_district
p6670
g1
(g2
g3
Ntp6671
Rp6672
S'U\x01@\xbbw\x8d\x17\x15\xb9B\x0e\xbb'
p6673
bsVmobile
p6674
V18943973113
p6675
sVmin_cost_to_deliver
p6676
I0
sVdelivery_price
p6677
I100
sVimage_id
p6678
g1
(g2
g3
Ntp6679
Rp6680
S'U\x01@\xacw\x8d\x17\x15\xb9B\r\xfd'
p6681
bsVopen_hour
p6682
(lp6683
I0
aI86400
asVlocation
p6684
(lp6685
F125.368637
aF43.831137
asVaddress
p6686
V\u5409\u6797\u7701\u957f\u6625\u5e02\u5357\u5173\u533a\u4e16\u8363\u8def88
p6687
sVcreated_time
p6688
L1426145473721L
sV_id
p6689
g6663
sVtype
p6690
Vcvs
p6691
ssg1
(g2
g3
Ntp6692
Rp6693
S'U\x01@\xc1w\x8d\x17\x15\xb9B\x10\xdf'
p6694
b(dp6695
Vstatus
p6696
Vopen
p6697
sVname
p6698
V\u4e91\u5357\u5f00\u653e\u5927\u5b66\u56fd\u9632\u5de5\u4e1a\u804c\u4e1a\u6280\u672f\u5b66\u9662\u4e3b\u6821\u533a
p6699
sVschool_district
p6700
g1
(g2
g3
Ntp6701
Rp6702
S'U\x01@\xbaw\x8d\x17\x15\xb9B\x0e\xb2'
p6703
bsVmobile
p6704
V15887062958
p6705
sVmin_cost_to_deliver
p6706
I0
sVdelivery_price
p6707
I100
sVimage_id
p6708
g1
(g2
g3
Ntp6709
Rp6710
S'U\x01@\xacw\x8d\x17\x15\xb9B\r\xfd'
p6711
bsVopen_hour
p6712
(lp6713
I0
aI86400
asVlocation
p6714
(lp6715
F102.706246
aF25.061795
asVaddress
p6716
V\u4e91\u5357\u7701\u6606\u660e\u5e02\u4e94\u534e\u533a\u4e00\u4e8c\u4e00\u5927\u8857202\u53f7
p6717
sVcreated_time
p6718
L1426145473692L
sV_id
p6719
g6693
sVtype
p6720
Vcvs
p6721
ssg1
(g2
g3
Ntp6722
Rp6723
S'U\x01@\xc1w\x8d\x17\x15\xb9B\x13\x87'
p6724
b(dp6725
Vstatus
p6726
Vopen
p6727
sVname
p6728
V\u5927\u8fde\u6d77\u4e8b\u5927\u5b66\u4e1c\u5c71\u6821\u533a
p6729
sVschool_district
p6730
g1
(g2
g3
Ntp6731
Rp6732
S'U\x01@\xaew\x8d\x17\x15\xb9B\x0e\x11'
p6733
bsVmobile
p6734
V15241192315
p6735
sVmin_cost_to_deliver
p6736
I0
sVdelivery_price
p6737
I100
sVimage_id
p6738
g1
(g2
g3
Ntp6739
Rp6740
S'U\x01@\xacw\x8d\x17\x15\xb9B\r\xfd'
p6741
bsVopen_hour
p6742
(lp6743
I0
aI86400
asVlocation
p6744
(lp6745
F121.53208
aF38.871423
asVaddress
p6746
V\u8fbd\u5b81\u7701\u5927\u8fde\u5e02\u7518\u4e95\u5b50\u533a\u5b66\u5b50\u8857
p6747
sVcreated_time
p6748
L1426145473914L
sV_id
p6749
g6723
sVtype
p6750
Vcvs
p6751
ssg1
(g2
g3
Ntp6752
Rp6753
S'U\x01@\xc1w\x8d\x17\x15\xb9B\x11?'
p6754
b(dp6755
Vstatus
p6756
Vopen
p6757
sVname
p6758
V\u6d59\u6c5f\u79d1\u6280\u5b66\u9662\u5c0f\u548c\u5c71\u6821\u533a
p6759
sVschool_district
p6760
g1
(g2
g3
Ntp6761
Rp6762
S'U\x01@\xbbw\x8d\x17\x15\xb9B\x0e\xbe'
p6763
bsVmobile
p6764
V13588299241
p6765
sVmin_cost_to_deliver
p6766
I0
sVdelivery_price
p6767
I100
sVimage_id
p6768
g1
(g2
g3
Ntp6769
Rp6770
S'U\x01@\xacw\x8d\x17\x15\xb9B\r\xfd'
p6771
bsVopen_hour
p6772
(lp6773
I0
aI86400
asVlocation
p6774
(lp6775
F120.027544
aF30.219174
asVaddress
p6776
V\u6d59\u6c5f\u7701\u676d\u5dde\u5e02\u897f\u6e56\u533a\u7559\u548c\u8def
p6777
sVcreated_time
p6778
L1426145473728L
sV_id
p6779
g6753
sVtype
p6780
Vcvs
p6781
ssg1
(g2
g3
Ntp6782
Rp6783
S'U\x01@\xc1w\x8d\x17\x15\xb9B\x12\x97'
p6784
b(dp6785
Vstatus
p6786
Vopen
p6787
sVname
p6788
V\u5357\u534e\u5927\u5b66\u4e3b\u6821\u533a
p6789
sVschool_district
p6790
g1
(g2
g3
Ntp6791
Rp6792
S'U\x01@\xbew\x8d\x17\x15\xb9B\x0e\xe9'
p6793
bsVmobile
p6794
V15211831053
p6795
sVmin_cost_to_deliver
p6796
I0
sVdelivery_price
p6797
I100
sVimage_id
p6798
g1
(g2
g3
Ntp6799
Rp6800
S'U\x01@\xacw\x8d\x17\x15\xb9B\r\xfd'
p6801
bsVopen_hour
p6802
(lp6803
I0
aI86400
asVlocation
p6804
(lp6805
F112.590443
aF26.898838
asVaddress
p6806
V\u6e56\u5357\u7701\u8861\u9633\u5e02\u84b8\u6e58\u533a\u89e3\u653e\u897f\u8def82\u53f7
p6807
sVcreated_time
p6808
L1426145473837L
sV_id
p6809
g6783
sVtype
p6810
Vcvs
p6811
ssg1
(g2
g3
Ntp6812
Rp6813
S'U\x01@\xc1w\x8d\x17\x15\xb9B\x10\xc7'
p6814
b(dp6815
Vstatus
p6816
Vopen
p6817
sVname
p6818
V\u4e91\u5357\u5927\u5b66\u65c5\u6e38\u6587\u5316\u5b66\u9662\u53e4\u57ce\u533a\u6821\u533a
p6819
sVschool_district
p6820
g1
(g2
g3
Ntp6821
Rp6822
S'U\x01@\xbaw\x8d\x17\x15\xb9B\x0e\xaf'
p6823
bsVmobile
p6824
V15687276612
p6825
sVmin_cost_to_deliver
p6826
I0
sVdelivery_price
p6827
I100
sVimage_id
p6828
g1
(g2
g3
Ntp6829
Rp6830
S'U\x01@\xacw\x8d\x17\x15\xb9B\r\xfd'
p6831
bsVopen_hour
p6832
(lp6833
I0
aI86400
asVlocation
p6834
(lp6835
F100.233147
aF26.907136
asVaddress
p6836
V\u4e91\u5357\u7701\u4e3d\u6c5f\u5e02\u53e4\u57ce\u533a\u7389\u6cc9\u8def
p6837
sVcreated_time
p6838
L1426145473685L
sV_id
p6839
g6813
sVtype
p6840
Vcvs
p6841
ssg1
(g2
g3
Ntp6842
Rp6843
S'U\x01@\xc1w\x8d\x17\x15\xb9B\x13\x8f'
p6844
b(dp6845
Vstatus
p6846
Vopen
p6847
sVname
p6848
V\u5927\u8fde\u6d77\u4e8b\u5927\u5b66\u897f\u5c71\u6821\u533a
p6849
sVschool_district
p6850
g1
(g2
g3
Ntp6851
Rp6852
S'U\x01@\xaew\x8d\x17\x15\xb9B\x0e\x12'
p6853
bsVmobile
p6854
V15241192315
p6855
sVmin_cost_to_deliver
p6856
I0
sVdelivery_price
p6857
I100
sVimage_id
p6858
g1
(g2
g3
Ntp6859
Rp6860
S'U\x01@\xacw\x8d\x17\x15\xb9B\r\xfd'
p6861
bsVopen_hour
p6862
(lp6863
I0
aI86400
asVlocation
p6864
(lp6865
F121.525256
aF38.869669
asVaddress
p6866
V\u8fbd\u5b81\u7701\u5927\u8fde\u5e02\u7518\u4e95\u5b50\u533a\u9ad8\u80fd\u885766\u53f7
p6867
sVcreated_time
p6868
L1426145473917L
sV_id
p6869
g6843
sVtype
p6870
Vcvs
p6871
ssg1
(g2
g3
Ntp6872
Rp6873
S'U\x01@\xc1w\x8d\x17\x15\xb9B\x117'
p6874
b(dp6875
Vstatus
p6876
Vopen
p6877
sVname
p6878
V\u957f\u6c99\u5b66\u9662\u4e3b\u6821\u533a
p6879
sVschool_district
p6880
g1
(g2
g3
Ntp6881
Rp6882
S'U\x01@\xbbw\x8d\x17\x15\xb9B\x0e\xbd'
p6883
bsVmobile
p6884
V13278857132
p6885
sVmin_cost_to_deliver
p6886
I0
sVdelivery_price
p6887
I100
sVimage_id
p6888
g1
(g2
g3
Ntp6889
Rp6890
S'U\x01@\xacw\x8d\x17\x15\xb9B\r\xfd'
p6891
bsVopen_hour
p6892
(lp6893
I0
aI86400
asVlocation
p6894
(lp6895
F113.026516
aF28.244968
asVaddress
p6896
V\u6e56\u5357\u7701\u957f\u6c99\u5e02\u5f00\u798f\u533a\u4e1c\u4e8c\u73af
p6897
sVcreated_time
p6898
L1426145473726L
sV_id
p6899
g6873
sVtype
p6900
Vcvs
p6901
ssg1
(g2
g3
Ntp6902
Rp6903
S'U\x01@\xc1w\x8d\x17\x15\xb9B\x10\xcf'
p6904
b(dp6905
Vstatus
p6906
Vopen
p6907
sVname
p6908
V\u4e91\u5357\u4ea4\u901a\u804c\u4e1a\u6280\u672f\u5b66\u9662\u5448\u8d21\u6821\u533a
p6909
sVschool_district
p6910
g1
(g2
g3
Ntp6911
Rp6912
S'U\x01@\xbaw\x8d\x17\x15\xb9B\x0e\xb0'
p6913
bsVmobile
p6914
V18314123711
p6915
sVmin_cost_to_deliver
p6916
I0
sVdelivery_price
p6917
I100
sVimage_id
p6918
g1
(g2
g3
Ntp6919
Rp6920
S'U\x01@\xacw\x8d\x17\x15\xb9B\r\xfd'
p6921
bsVopen_hour
p6922
(lp6923
I0
aI86400
asVlocation
p6924
(lp6925
F102.859802
aF24.836328
asVaddress
p6926
V\u4e91\u5357\u7701\u6606\u660e\u5e02\u5448\u8d21\u533a
p6927
sVcreated_time
p6928
L1426145473688L
sV_id
p6929
g6903
sVtype
p6930
Vcvs
p6931
ssg1
(g2
g3
Ntp6932
Rp6933
S'U\x01@\xc1w\x8d\x17\x15\xb9B\x12\xcf'
p6934
b(dp6935
Vstatus
p6936
Vopen
p6937
sVname
p6938
V\u6c88\u9633\u5316\u5de5\u5927\u5b66\u4e3b\u6821\u533a
p6939
sVschool_district
p6940
g1
(g2
g3
Ntp6941
Rp6942
S'U\x01@\xbfw\x8d\x17\x15\xb9B\x0e\xf1'
p6943
bsVmobile
p6944
V13889366025
p6945
sVmin_cost_to_deliver
p6946
I0
sVdelivery_price
p6947
I100
sVimage_id
p6948
g1
(g2
g3
Ntp6949
Rp6950
S'U\x01@\xacw\x8d\x17\x15\xb9B\r\xfd'
p6951
bsVopen_hour
p6952
(lp6953
I0
aI86400
asVlocation
p6954
(lp6955
F123.241727
aF41.753973
asVaddress
p6956
V\u8fbd\u5b81\u7701\u6c88\u9633\u5e02\u4e8e\u6d2a\u533a\u817e\u98de\u8def
p6957
sVcreated_time
p6958
L1426145473854L
sV_id
p6959
g6933
sVtype
p6960
Vcvs
p6961
ssg1
(g2
g3
Ntp6962
Rp6963
S'U\x01@\xc1w\x8d\x17\x15\xb9B\x11\x0f'
p6964
b(dp6965
Vstatus
p6966
Vopen
p6967
sVname
p6968
V\u957f\u6625\u5927\u5b66\u671d\u9633\u6821\u533a
p6969
sVschool_district
p6970
g1
(g2
g3
Ntp6971
Rp6972
S'U\x01@\xbbw\x8d\x17\x15\xb9B\x0e\xb8'
p6973
bsVmobile
p6974
V18043020216
p6975
sVmin_cost_to_deliver
p6976
I0
sVdelivery_price
p6977
I100
sVimage_id
p6978
g1
(g2
g3
Ntp6979
Rp6980
S'U\x01@\xacw\x8d\x17\x15\xb9B\r\xfd'
p6981
bsVopen_hour
p6982
(lp6983
I0
aI86400
asVlocation
p6984
(lp6985
F125.321918
aF43.835107
asVaddress
p6986
V\u5409\u6797\u7701\u957f\u6625\u5e02\u5357\u5173\u533a\u5e78\u798f\u8857831\u53f7
p6987
sVcreated_time
p6988
L1426145473706L
sV_id
p6989
g6963
sVtype
p6990
Vcvs
p6991
ssg1
(g2
g3
Ntp6992
Rp6993
S'U\x01@\xc1w\x8d\x17\x15\xb9B\x12O'
p6994
b(dp6995
Vstatus
p6996
Vopen
p6997
sVname
p6998
V\u5409\u6797\u5de5\u5546\u5b66\u9662\u4e3b\u6821\u533a
p6999
sVschool_district
p7000
g1
(g2
g3
Ntp7001
Rp7002
S'U\x01@\xbew\x8d\x17\x15\xb9B\x0e\xe0'
p7003
bsVmobile
p7004
V15504482040
p7005
sVmin_cost_to_deliver
p7006
I0
sVdelivery_price
p7007
I100
sVimage_id
p7008
g1
(g2
g3
Ntp7009
Rp7010
S'U\x01@\xacw\x8d\x17\x15\xb9B\r\xfd'
p7011
bsVopen_hour
p7012
(lp7013
I0
aI86400
asVlocation
p7014
(lp7015
F125.538948
aF43.992405
asVaddress
p7016
V\u5409\u6797\u7701\u957f\u6625\u5e02\u4e5d\u53f0\u5e02\u7eac\u5341\u4e00\u8def
p7017
sVcreated_time
p7018
L1426145473813L
sV_id
p7019
g6993
sVtype
p7020
Vcvs
p7021
ssg1
(g2
g3
Ntp7022
Rp7023
S'U\x01@\xc1w\x8d\x17\x15\xb9B\x10\xf7'
p7024
b(dp7025
Vstatus
p7026
Vopen
p7027
sVname
p7028
V\u4e91\u5357\u5e08\u8303\u5927\u5b66\u5546\u5b66\u9662\u6768\u6797\u6821\u533a
p7029
sVschool_district
p7030
g1
(g2
g3
Ntp7031
Rp7032
S'U\x01@\xbaw\x8d\x17\x15\xb9B\x0e\xb5'
p7033
bsVmobile
p7034
V18287182133
p7035
sVmin_cost_to_deliver
p7036
I0
sVdelivery_price
p7037
I100
sVimage_id
p7038
g1
(g2
g3
Ntp7039
Rp7040
S'U\x01@\xacw\x8d\x17\x15\xb9B\r\xfd'
p7041
bsVopen_hour
p7042
(lp7043
I0
aI86400
asVlocation
p7044
(lp7045
F103.003728
aF25.235337
asVaddress
p7046
V\u4e91\u5357\u7701\u6606\u660e\u5e02\u5b98\u6e21\u533a
p7047
sVcreated_time
p7048
L1426145473699L
sV_id
p7049
g7023
sVtype
p7050
Vcvs
p7051
ssg1
(g2
g3
Ntp7052
Rp7053
S'U\x01@\xc1w\x8d\x17\x15\xb9B\x13\xbf'
p7054
b(dp7055
Vstatus
p7056
Vopen
p7057
sVname
p7058
V\u8d63\u5357\u5e08\u8303\u5b66\u9662\u9ec4\u91d1\u6821\u533a
p7059
sVschool_district
p7060
g1
(g2
g3
Ntp7061
Rp7062
S'U\x01@\xaew\x8d\x17\x15\xb9B\x0e\x18'
p7063
bsVmobile
p7064
V18365409640
p7065
sVmin_cost_to_deliver
p7066
I0
sVdelivery_price
p7067
I100
sVimage_id
p7068
g1
(g2
g3
Ntp7069
Rp7070
S'U\x01@\xacw\x8d\x17\x15\xb9B\r\xfd'
p7071
bsVopen_hour
p7072
(lp7073
I0
aI86400
asVlocation
p7074
(lp7075
F114.886028
aF25.795873
asVaddress
p7076
V\u6c5f\u897f\u7701\u8d63\u5dde\u5e02\u7ae0\u8d21\u533a\u5e08\u9662\u5357\u8def
p7077
sVcreated_time
p7078
L1426145473934L
sV_id
p7079
g7053
sVtype
p7080
Vcvs
p7081
ssg1
(g2
g3
Ntp7082
Rp7083
S'U\x01@\xc1w\x8d\x17\x15\xb9B\x11\x07'
p7084
b(dp7085
Vstatus
p7086
Vopen
p7087
sVname
p7088
V\u957f\u5b89\u5927\u5b66\u6e2d\u6c34\u6821\u533a
p7089
sVschool_district
p7090
g1
(g2
g3
Ntp7091
Rp7092
S'U\x01@\xbbw\x8d\x17\x15\xb9B\x0e\xb7'
p7093
bsVmobile
p7094
V15667085765
p7095
sVmin_cost_to_deliver
p7096
I0
sVdelivery_price
p7097
I100
sVimage_id
p7098
g1
(g2
g3
Ntp7099
Rp7100
S'U\x01@\xacw\x8d\x17\x15\xb9B\r\xfd'
p7101
bsVopen_hour
p7102
(lp7103
I0
aI86400
asVlocation
p7104
(lp7105
F108.904509
aF34.370264
asVaddress
p7106
V\u9655\u897f\u7701\u897f\u5b89\u5e02\u672a\u592e\u533a\u957f\u5927\u5357\u8def
p7107
sVcreated_time
p7108
L1426145473704L
sV_id
p7109
g7083
sVtype
p7110
Vcvs
p7111
ssg1
(g2
g3
Ntp7112
Rp7113
S'U\x01@\xc1w\x8d\x17\x15\xb9B\x10\xff'
p7114
b(dp7115
Vstatus
p7116
Vopen
p7117
sVname
p7118
V\u8fd0\u57ce\u5b66\u9662\u821c\u5e1d\u9675\u6821\u533a
p7119
sVschool_district
p7120
g1
(g2
g3
Ntp7121
Rp7122
S'U\x01@\xbaw\x8d\x17\x15\xb9B\x0e\xb6'
p7123
bsVmobile
p7124
V15735929660
p7125
sVmin_cost_to_deliver
p7126
I0
sVdelivery_price
p7127
I100
sVimage_id
p7128
g1
(g2
g3
Ntp7129
Rp7130
S'U\x01@\xacw\x8d\x17\x15\xb9B\r\xfd'
p7131
bsVopen_hour
p7132
(lp7133
I0
aI86400
asVlocation
p7134
(lp7135
F110.931787
aF35.125454
asVaddress
p7136
V\u5c71\u897f\u7701\u8fd0\u57ce\u5e02\u76d0\u6e56\u533a
p7137
sVcreated_time
p7138
L1426145473701L
sV_id
p7139
g7113
sVtype
p7140
Vcvs
p7141
ssg1
(g2
g3
Ntp7142
Rp7143
S'U\x01@\xc1w\x8d\x17\x15\xb9B\x13\xa7'
p7144
b(dp7145
Vstatus
p7146
Vopen
p7147
sVname
p7148
V\u4e1c\u839e\u7406\u5de5\u5b66\u9662\u57ce\u5e02\u5b66\u9662\u5bee\u6b65\u6821\u533a
p7149
sVschool_district
p7150
g1
(g2
g3
Ntp7151
Rp7152
S'U\x01@\xaew\x8d\x17\x15\xb9B\x0e\x15'
p7153
bsVmobile
p7154
V15899632610
p7155
sVmin_cost_to_deliver
p7156
I0
sVdelivery_price
p7157
I100
sVimage_id
p7158
g1
(g2
g3
Ntp7159
Rp7160
S'U\x01@\xacw\x8d\x17\x15\xb9B\r\xfd'
p7161
bsVopen_hour
p7162
(lp7163
I0
aI86400
asVlocation
p7164
(lp7165
F113.772462
aF23.050487
asVaddress
p7166
V\u5e7f\u4e1c\u7701\u4e1c\u839e\u5e02\u4e1c\u839e\u5e02\u5e02\u8f96\u533a\u4e07\u5174\u8def12\u53f7
p7167
sVcreated_time
p7168
L1426145473924L
sV_id
p7169
g7143
sVtype
p7170
Vcvs
p7171
ssg1
(g2
g3
Ntp7172
Rp7173
S'U\x01@\xc1w\x8d\x17\x15\xb9B\x11\x1f'
p7174
b(dp7175
Vstatus
p7176
Vopen
p7177
sVname
p7178
V\u957f\u6625\u5927\u5b66\u4e1c\u6821\u533a
p7179
sVschool_district
p7180
g1
(g2
g3
Ntp7181
Rp7182
S'U\x01@\xbbw\x8d\x17\x15\xb9B\x0e\xba'
p7183
bsVmobile
p7184
V18043020216
p7185
sVmin_cost_to_deliver
p7186
I0
sVdelivery_price
p7187
I100
sVimage_id
p7188
g1
(g2
g3
Ntp7189
Rp7190
S'U\x01@\xacw\x8d\x17\x15\xb9B\r\xfd'
p7191
bsVopen_hour
p7192
(lp7193
I0
aI86400
asVlocation
p7194
(lp7195
F125.321628
aF43.834813
asVaddress
p7196
V\u5409\u6797\u7701\u957f\u6625\u5e02\u5357\u5173\u533a\u5e78\u798f\u8857879\u53f7
p7197
sVcreated_time
p7198
L1426145473719L
sV_id
p7199
g7173
sVtype
p7200
Vcvs
p7201
ssg1
(g2
g3
Ntp7202
Rp7203
S'U\x01@\xc1w\x8d\x17\x15\xb9B\x10\xe7'
p7204
b(dp7205
Vstatus
p7206
Vopen
p7207
sVname
p7208
V\u4e91\u5357\u519c\u4e1a\u5927\u5b66\u4e3b\u6821\u533a
p7209
sVschool_district
p7210
g1
(g2
g3
Ntp7211
Rp7212
S'U\x01@\xbaw\x8d\x17\x15\xb9B\x0e\xb3'
p7213
bsVmobile
p7214
V15969500164
p7215
sVmin_cost_to_deliver
p7216
I0
sVdelivery_price
p7217
I100
sVimage_id
p7218
g1
(g2
g3
Ntp7219
Rp7220
S'U\x01@\xacw\x8d\x17\x15\xb9B\r\xfd'
p7221
bsVopen_hour
p7222
(lp7223
I0
aI86400
asVlocation
p7224
(lp7225
F102.751092
aF25.127801
asVaddress
p7226
V\u4e91\u5357\u7701\u6606\u660e\u5e02\u76d8\u9f99\u533a\u5c0f\u5eb7\u5927\u9053
p7227
sVcreated_time
p7228
L1426145473695L
sV_id
p7229
g7203
sVtype
p7230
Vcvs
p7231
ssg1
(g2
g3
Ntp7232
Rp7233
S'U\x01@\xc1w\x8d\x17\x15\xb9B\x14/'
p7234
b(dp7235
Vstatus
p7236
Vopen
p7237
sVname
p7238
V\u6842\u6797\u7406\u5de5\u5927\u5b66\u5c4f\u98ce\u6821\u533a
p7239
sVschool_district
p7240
g1
(g2
g3
Ntp7241
Rp7242
S'U\x01@\xafw\x8d\x17\x15\xb9B\x0e&'
p7243
bsVmobile
p7244
V15978002716
p7245
sVmin_cost_to_deliver
p7246
I0
sVdelivery_price
p7247
I100
sVimage_id
p7248
g1
(g2
g3
Ntp7249
Rp7250
S'U\x01@\xacw\x8d\x17\x15\xb9B\r\xfd'
p7251
bsVopen_hour
p7252
(lp7253
I0
aI86400
asVlocation
p7254
(lp7255
F110.316795
aF25.281789
asVaddress
p7256
V\u5e7f\u897f\u58ee\u65cf\u81ea\u6cbb\u533a\u6842\u6797\u5e02\u4e03\u661f\u533a\u6816\u971e\u6865
p7257
sVcreated_time
p7258
L1426145473970L
sV_id
p7259
g7233
sVtype
p7260
Vcvs
p7261
ssg1
(g2
g3
Ntp7262
Rp7263
S'U\x01@\xc1w\x8d\x17\x15\xb9B\x13\xaf'
p7264
b(dp7265
Vstatus
p7266
Vopen
p7267
sVname
p7268
V\u4e1c\u839e\u7406\u5de5\u5b66\u9662\u57ce\u5e02\u5b66\u9662\u5bee\u6b65\u6821\u533a
p7269
sVschool_district
p7270
g1
(g2
g3
Ntp7271
Rp7272
S'U\x01@\xaew\x8d\x17\x15\xb9B\x0e\x16'
p7273
bsVmobile
p7274
V15899632610
p7275
sVmin_cost_to_deliver
p7276
I0
sVdelivery_price
p7277
I100
sVimage_id
p7278
g1
(g2
g3
Ntp7279
Rp7280
S'U\x01@\xacw\x8d\x17\x15\xb9B\r\xfd'
p7281
bsVopen_hour
p7282
(lp7283
I0
aI86400
asVlocation
p7284
(lp7285
F113.838021
aF22.981087
asVaddress
p7286
V\u5e7f\u4e1c\u7701\u4e1c\u839e\u5e02\u4e1c\u839e\u5e02\u5e02\u8f96\u533a\u4e1c\u79d1\u8def
p7287
sVcreated_time
p7288
L1426145473929L
sV_id
p7289
g7263
sVtype
p7290
Vcvs
p7291
ssg1
(g2
g3
Ntp7292
Rp7293
S'U\x01@\xc1w\x8d\x17\x15\xb9B\x11\x17'
p7294
b(dp7295
Vstatus
p7296
Vopen
p7297
sVname
p7298
V\u957f\u6625\u5927\u5b66\u897f\u6821\u533a
p7299
sVschool_district
p7300
g1
(g2
g3
Ntp7301
Rp7302
S'U\x01@\xbbw\x8d\x17\x15\xb9B\x0e\xb9'
p7303
bsVmobile
p7304
V18043020216
p7305
sVmin_cost_to_deliver
p7306
I0
sVdelivery_price
p7307
I100
sVimage_id
p7308
g1
(g2
g3
Ntp7309
Rp7310
S'U\x01@\xacw\x8d\x17\x15\xb9B\r\xfd'
p7311
bsVopen_hour
p7312
(lp7313
I0
aI86400
asVlocation
p7314
(lp7315
F125.299033
aF43.83075
asVaddress
p7316
V\u5409\u6797\u7701\u957f\u6625\u5e02\u671d\u9633\u533a\u661f\u706b\u5317\u4e00\u8def
p7317
sVcreated_time
p7318
L1426145473716L
sV_id
p7319
g7293
sVtype
p7320
Vcvs
p7321
ssg1
(g2
g3
Ntp7322
Rp7323
S'U\x01@\xc1w\x8d\x17\x15\xb9B\x10\xef'
p7324
b(dp7325
Vstatus
p7326
Vopen
p7327
sVname
p7328
V\u4e91\u5357\u5e08\u8303\u5927\u5b66\u5448\u8d21\u6821\u533a
p7329
sVschool_district
p7330
g1
(g2
g3
Ntp7331
Rp7332
S'U\x01@\xbaw\x8d\x17\x15\xb9B\x0e\xb4'
p7333
bsVmobile
p7334
V15559919042
p7335
sVmin_cost_to_deliver
p7336
I0
sVdelivery_price
p7337
I100
sVimage_id
p7338
g1
(g2
g3
Ntp7339
Rp7340
S'U\x01@\xacw\x8d\x17\x15\xb9B\r\xfd'
p7341
bsVopen_hour
p7342
(lp7343
I0
aI86400
asVlocation
p7344
(lp7345
F102.852974
aF24.86074
asVaddress
p7346
V\u4e91\u5357\u7701\u6606\u660e\u5e02\u5448\u8d21\u533a\u6625\u878d\u4e1c\u8def
p7347
sVcreated_time
p7348
L1426145473697L
sV_id
p7349
g7323
sVtype
p7350
Vcvs
p7351
ssg1
(g2
g3
Ntp7352
Rp7353
S'U\x01@\xc1w\x8d\x17\x15\xb9B\x12\xdf'
p7354
b(dp7355
Vstatus
p7356
Vopen
p7357
sVname
p7358
V\u6e56\u5317\u5927\u5b66\u9633\u903b\u6821\u533a
p7359
sVschool_district
p7360
g1
(g2
g3
Ntp7361
Rp7362
S'U\x01@\xbfw\x8d\x17\x15\xb9B\x0e\xf3'
p7363
bsVmobile
p7364
V18063503145
p7365
sVmin_cost_to_deliver
p7366
I0
sVdelivery_price
p7367
I100
sVimage_id
p7368
g1
(g2
g3
Ntp7369
Rp7370
S'U\x01@\xacw\x8d\x17\x15\xb9B\r\xfd'
p7371
bsVopen_hour
p7372
(lp7373
I0
aI86400
asVlocation
p7374
(lp7375
F114.591267
aF30.652972
asVaddress
p7376
V\u6e56\u5317\u7701\u6b66\u6c49\u5e02\u65b0\u6d32\u533a\u5e73\u6c5f\u4e1c\u8def630
p7377
sVcreated_time
p7378
L1426145473859L
sV_id
p7379
g7353
sVtype
p7380
Vcvs
p7381
ssg1
(g2
g3
Ntp7382
Rp7383
S'U\x01@\xc1w\x8d\x17\x15\xb9B\x13\xb7'
p7384
b(dp7385
Vstatus
p7386
Vopen
p7387
sVname
p7388
V\u4f5b\u5c71\u804c\u4e1a\u6280\u672f\u5b66\u9662\u4e09\u6c34\u6821\u533a
p7389
sVschool_district
p7390
g1
(g2
g3
Ntp7391
Rp7392
S'U\x01@\xaew\x8d\x17\x15\xb9B\x0e\x17'
p7393
bsVmobile
p7394
V13539914986
p7395
sVmin_cost_to_deliver
p7396
I0
sVdelivery_price
p7397
I100
sVimage_id
p7398
g1
(g2
g3
Ntp7399
Rp7400
S'U\x01@\xacw\x8d\x17\x15\xb9B\r\xfd'
p7401
bsVopen_hour
p7402
(lp7403
I0
aI86400
asVlocation
p7404
(lp7405
F112.982448
aF23.239463
asVaddress
p7406
V\u5e7f\u4e1c\u7701\u4f5b\u5c71\u5e02\u4e09\u6c34\u533a\u6c88\u6d77\u9ad8\u901f\u516c\u8def
p7407
sVcreated_time
p7408
L1426145473932L
sV_id
p7409
g7383
sVtype
p7410
Vcvs
p7411
ssg1
(g2
g3
Ntp7412
Rp7413
S'U\x01@\xc1w\x8d\x17\x15\xb9B\x11o'
p7414
b(dp7415
Vstatus
p7416
Vopen
p7417
sVname
p7418
V\u4e2d\u56fd\u9752\u5e74\u653f\u6cbb\u5b66\u9662\u4e3b\u6821\u533a
p7419
sVschool_district
p7420
g1
(g2
g3
Ntp7421
Rp7422
S'U\x01@\xbcw\x8d\x17\x15\xb9B\x0e\xc4'
p7423
bsVmobile
p7424
V18813190364
p7425
sVmin_cost_to_deliver
p7426
I0
sVdelivery_price
p7427
I100
sVimage_id
p7428
g1
(g2
g3
Ntp7429
Rp7430
S'U\x01@\xacw\x8d\x17\x15\xb9B\r\xfd'
p7431
bsVopen_hour
p7432
(lp7433
I0
aI86400
asVlocation
p7434
(lp7435
F116.307347
aF39.950226
asVaddress
p7436
V\u5317\u4eac\u5e02\u6d77\u6dc0\u533a\u7d2b\u7af9\u9662\u8def100
p7437
sVcreated_time
p7438
L1426145473743L
sV_id
p7439
g7413
sVtype
p7440
Vcvs
p7441
ssg1
(g2
g3
Ntp7442
Rp7443
S'U\x01@\xc1w\x8d\x17\x15\xb9B\x12\x9f'
p7444
b(dp7445
Vstatus
p7446
Vopen
p7447
sVname
p7448
V\u6e56\u5357\u6000\u5316\u5b66\u9662\u4e3b\u6821\u533a
p7449
sVschool_district
p7450
g1
(g2
g3
Ntp7451
Rp7452
S'U\x01@\xbew\x8d\x17\x15\xb9B\x0e\xea'
p7453
bsVmobile
p7454
V15111521477
p7455
sVmin_cost_to_deliver
p7456
I0
sVdelivery_price
p7457
I100
sVimage_id
p7458
g1
(g2
g3
Ntp7459
Rp7460
S'U\x01@\xacw\x8d\x17\x15\xb9B\r\xfd'
p7461
bsVopen_hour
p7462
(lp7463
I0
aI86400
asVlocation
p7464
(lp7465
F110.044569
aF27.578037
asVaddress
p7466
V\u6e56\u5357\u7701\u6000\u5316\u5e02\u9e64\u57ce\u533a\u4e94\u6eaa\u5927\u9053
p7467
sVcreated_time
p7468
L1426145473839L
sV_id
p7469
g7443
sVtype
p7470
Vcvs
p7471
ssg1
(g2
g3
Ntp7472
Rp7473
S'U\x01@\xc1w\x8d\x17\x15\xb9B\x10\x97'
p7474
b(dp7475
Vstatus
p7476
Vopen
p7477
sVname
p7478
V\u8bb8\u660c\u5b66\u9662\u897f\u6821\u533a
p7479
sVschool_district
p7480
g1
(g2
g3
Ntp7481
Rp7482
S'U\x01@\xbaw\x8d\x17\x15\xb9B\x0e\xa9'
p7483
bsVmobile
p7484
V13213387456
p7485
sVmin_cost_to_deliver
p7486
I0
sVdelivery_price
p7487
I100
sVimage_id
p7488
g1
(g2
g3
Ntp7489
Rp7490
S'U\x01@\xacw\x8d\x17\x15\xb9B\r\xfd'
p7491
bsVopen_hour
p7492
(lp7493
I0
aI86400
asVlocation
p7494
(lp7495
F113.868854
aF34.042257
asVaddress
p7496
V\u6cb3\u5357\u7701\u8bb8\u660c\u5e02\u9b4f\u90fd\u533a\u5efa\u5b89\u5927\u9053\u4e1c\u6bb5
p7497
sVcreated_time
p7498
L1426145473669L
sV_id
p7499
g7473
sVtype
p7500
Vcvs
p7501
ssg1
(g2
g3
Ntp7502
Rp7503
S'U\x01@\xc1w\x8d\x17\x15\xb9B\x13\xdf'
p7504
b(dp7505
Vstatus
p7506
Vopen
p7507
sVname
p7508
V\u5e7f\u4e1c\u79d1\u6280\u5b66\u9662\u4e3b\u6821\u533a
p7509
sVschool_district
p7510
g1
(g2
g3
Ntp7511
Rp7512
S'U\x01@\xafw\x8d\x17\x15\xb9B\x0e\x1c'
p7513
bsVmobile
p7514
V13728333764
p7515
sVmin_cost_to_deliver
p7516
I0
sVdelivery_price
p7517
I100
sVimage_id
p7518
g1
(g2
g3
Ntp7519
Rp7520
S'U\x01@\xacw\x8d\x17\x15\xb9B\r\xfd'
p7521
bsVopen_hour
p7522
(lp7523
I0
aI86400
asVlocation
p7524
(lp7525
F113.754844
aF22.972934
asVaddress
p7526
V\u5e7f\u4e1c\u7701\u4e1c\u839e\u5e02\u4e1c\u839e\u5e02\u5e02\u8f96\u533a\u7eff\u8272\u8def
p7527
sVcreated_time
p7528
L1426145473943L
sV_id
p7529
g7503
sVtype
p7530
Vcvs
p7531
ssg1
(g2
g3
Ntp7532
Rp7533
S'U\x01@\xc1w\x8d\x17\x15\xb9B\x11g'
p7534
b(dp7535
Vstatus
p7536
Vopen
p7537
sVname
p7538
V\u4e2d\u56fd\u77ff\u4e1a\u5927\u5b66(\u5317\u4eac)\u4e3b\u6821\u533a
p7539
sVschool_district
p7540
g1
(g2
g3
Ntp7541
Rp7542
S'U\x01@\xbbw\x8d\x17\x15\xb9B\x0e\xc3'
p7543
bsVmobile
p7544
V15650702875
p7545
sVmin_cost_to_deliver
p7546
I0
sVdelivery_price
p7547
I100
sVimage_id
p7548
g1
(g2
g3
Ntp7549
Rp7550
S'U\x01@\xacw\x8d\x17\x15\xb9B\r\xfd'
p7551
bsVopen_hour
p7552
(lp7553
I0
aI86400
asVlocation
p7554
(lp7555
F116.349291
aF39.998197
asVaddress
p7556
V\u5317\u4eac\u5e02\u6d77\u6dc0\u533a\u6210\u5e9c\u8def20\u53f7\u9662
p7557
sVcreated_time
p7558
L1426145473740L
sV_id
p7559
g7533
sVtype
p7560
Vcvs
p7561
ssg1
(g2
g3
Ntp7562
Rp7563
S'U\x01@\xc1w\x8d\x17\x15\xb9B\x10\x9f'
p7564
b(dp7565
Vstatus
p7566
Vopen
p7567
sVname
p7568
V\u4ef0\u6069\u5927\u5b66 \u4e3b\u6821\u533a
p7569
sVschool_district
p7570
g1
(g2
g3
Ntp7571
Rp7572
S'U\x01@\xbaw\x8d\x17\x15\xb9B\x0e\xaa'
p7573
bsVmobile
p7574
V18005055201
p7575
sVmin_cost_to_deliver
p7576
I0
sVdelivery_price
p7577
I100
sVimage_id
p7578
g1
(g2
g3
Ntp7579
Rp7580
S'U\x01@\xacw\x8d\x17\x15\xb9B\r\xfd'
p7581
bsVopen_hour
p7582
(lp7583
I0
aI86400
asVlocation
p7584
(lp7585
F118.61348
aF25.111476
asVaddress
p7586
V\u798f\u5efa\u7701\u6cc9\u5dde\u5e02\u6d1b\u6c5f\u533a
p7587
sVcreated_time
p7588
L1426145473671L
sV_id
p7589
g7563
sVtype
p7590
Vcvs
p7591
ssg1
(g2
g3
Ntp7592
Rp7593
S'U\x01@\xc1w\x8d\x17\x15\xb9B\x13\xc7'
p7594
b(dp7595
Vstatus
p7596
Vopen
p7597
sVname
p7598
V\u5e7f\u4e1c\u5de5\u4e1a\u5927\u5b66\u4e1c\u98ce\u8def\u6821\u533a
p7599
sVschool_district
p7600
g1
(g2
g3
Ntp7601
Rp7602
S'U\x01@\xaew\x8d\x17\x15\xb9B\x0e\x19'
p7603
bsVmobile
p7604
V18826139654
p7605
sVmin_cost_to_deliver
p7606
I0
sVdelivery_price
p7607
I100
sVimage_id
p7608
g1
(g2
g3
Ntp7609
Rp7610
S'U\x01@\xacw\x8d\x17\x15\xb9B\r\xfd'
p7611
bsVopen_hour
p7612
(lp7613
I0
aI86400
asVlocation
p7614
(lp7615
F113.29956
aF23.135861
asVaddress
p7616
V\u5e7f\u4e1c\u7701\u5e7f\u5dde\u5e02\u8d8a\u79c0\u533a\u5317\u76f4\u88575\u53f7
p7617
sVcreated_time
p7618
L1426145473936L
sV_id
p7619
g7593
sVtype
p7620
Vcvs
p7621
ssg1
(g2
g3
Ntp7622
Rp7623
S'U\x01@\xc1w\x8d\x17\x15\xb9B\x11\x7f'
p7624
b(dp7625
Vstatus
p7626
Vopen
p7627
sVname
p7628
V\u91cd\u5e86\u4ea4\u901a\u5927\u5b66\u53cc\u798f\u6821\u533a
p7629
sVschool_district
p7630
g1
(g2
g3
Ntp7631
Rp7632
S'U\x01@\xbcw\x8d\x17\x15\xb9B\x0e\xc6'
p7633
bsVmobile
p7634
V13540377053
p7635
sVmin_cost_to_deliver
p7636
I0
sVdelivery_price
p7637
I100
sVimage_id
p7638
g1
(g2
g3
Ntp7639
Rp7640
S'U\x01@\xacw\x8d\x17\x15\xb9B\r\xfd'
p7641
bsVopen_hour
p7642
(lp7643
I0
aI86400
asVlocation
p7644
(lp7645
F106.317089
aF29.41903
asVaddress
p7646
V\u91cd\u5e86\u5e02\u6c5f\u6d25\u533a
p7647
sVcreated_time
p7648
L1426145473748L
sV_id
p7649
g7623
sVtype
p7650
Vcvs
p7651
ssg1
(g2
g3
Ntp7652
Rp7653
S'U\x01@\xc1w\x8d\x17\x15\xb9B\x10\x87'
p7654
b(dp7655
Vstatus
p7656
Vopen
p7657
sVname
p7658
V\u897f\u5357\u4ea4\u901a\u5927\u5b66\u5ce8\u7709\u6821\u533a
p7659
sVschool_district
p7660
g1
(g2
g3
Ntp7661
Rp7662
S'U\x01@\xb9w\x8d\x17\x15\xb9B\x0e\xa7'
p7663
bsVmobile
p7664
V18283617070
p7665
sVmin_cost_to_deliver
p7666
I0
sVdelivery_price
p7667
I100
sVimage_id
p7668
g1
(g2
g3
Ntp7669
Rp7670
S'U\x01@\xacw\x8d\x17\x15\xb9B\r\xfd'
p7671
bsVopen_hour
p7672
(lp7673
I0
aI86400
asVlocation
p7674
(lp7675
F103.450773
aF29.572682
asVaddress
p7676
V\u56db\u5ddd\u7701\u4e50\u5c71\u5e02\u5ce8\u7709\u5c71\u5e02\u666f\u533a\u8def
p7677
sVcreated_time
p7678
L1426145473664L
sV_id
p7679
g7653
sVtype
p7680
Vcvs
p7681
ssg1
(g2
g3
Ntp7682
Rp7683
S'U\x01@\xc1w\x8d\x17\x15\xb9B\x13\xcf'
p7684
b(dp7685
Vstatus
p7686
Vopen
p7687
sVname
p7688
V\u5e7f\u4e1c\u6d77\u6d0b\u5927\u5b66\u4e3b\u6821\u533a
p7689
sVschool_district
p7690
g1
(g2
g3
Ntp7691
Rp7692
S'U\x01@\xafw\x8d\x17\x15\xb9B\x0e\x1a'
p7693
bsVmobile
p7694
V18320364774
p7695
sVmin_cost_to_deliver
p7696
I0
sVdelivery_price
p7697
I100
sVimage_id
p7698
g1
(g2
g3
Ntp7699
Rp7700
S'U\x01@\xacw\x8d\x17\x15\xb9B\r\xfd'
p7701
bsVopen_hour
p7702
(lp7703
I0
aI86400
asVlocation
p7704
(lp7705
F110.299633
aF21.150502
asVaddress
p7706
V\u5e7f\u4e1c\u7701\u6e5b\u6c5f\u5e02\u9ebb\u7ae0\u533ay014
p7707
sVcreated_time
p7708
L1426145473938L
sV_id
p7709
g7683
sVtype
p7710
Vcvs
p7711
ssg1
(g2
g3
Ntp7712
Rp7713
S'U\x01@\xc1w\x8d\x17\x15\xb9B\x11w'
p7714
b(dp7715
Vstatus
p7716
Vopen
p7717
sVname
p7718
V\u4e2d\u539f\u5de5\u5b66\u9662\u5357\u6821\u533a
p7719
sVschool_district
p7720
g1
(g2
g3
Ntp7721
Rp7722
S'U\x01@\xbcw\x8d\x17\x15\xb9B\x0e\xc5'
p7723
bsVmobile
p7724
V15978619330
p7725
sVmin_cost_to_deliver
p7726
I0
sVdelivery_price
p7727
I100
sVimage_id
p7728
g1
(g2
g3
Ntp7729
Rp7730
S'U\x01@\xacw\x8d\x17\x15\xb9B\r\xfd'
p7731
bsVopen_hour
p7732
(lp7733
I0
aI86400
asVlocation
p7734
(lp7735
F113.685664
aF34.585524
asVaddress
p7736
V\u6cb3\u5357\u7701\u90d1\u5dde\u5e02\u65b0\u90d1\u5e02g107
p7737
sVcreated_time
p7738
L1426145473745L
sV_id
p7739
g7713
sVtype
p7740
Vcvs
p7741
ssg1
(g2
g3
Ntp7742
Rp7743
S'U\x01@\xc1w\x8d\x17\x15\xb9B\x10\x8f'
p7744
b(dp7745
Vstatus
p7746
Vopen
p7747
sVname
p7748
V\u6e58\u6f6d\u5927\u5b66\u4e3b\u6821\u533a
p7749
sVschool_district
p7750
g1
(g2
g3
Ntp7751
Rp7752
S'U\x01@\xb9w\x8d\x17\x15\xb9B\x0e\xa8'
p7753
bsVmobile
p7754
V15717428761
p7755
sVmin_cost_to_deliver
p7756
I0
sVdelivery_price
p7757
I100
sVimage_id
p7758
g1
(g2
g3
Ntp7759
Rp7760
S'U\x01@\xacw\x8d\x17\x15\xb9B\r\xfd'
p7761
bsVopen_hour
p7762
(lp7763
I0
aI86400
asVlocation
p7764
(lp7765
F112.863445
aF27.879203
asVaddress
p7766
V\u6e56\u5357\u7701\u6e58\u6f6d\u5e02\u96e8\u6e56\u533a\u4e8c\u73af\u7ebf
p7767
sVcreated_time
p7768
L1426145473667L
sV_id
p7769
g7743
sVtype
p7770
Vcvs
p7771
ssg1
(g2
g3
Ntp7772
Rp7773
S'U\x01@\xc1w\x8d\x17\x15\xb9B\x13\xf7'
p7774
b(dp7775
Vstatus
p7776
Vopen
p7777
sVname
p7778
V\u5e7f\u897f\u5e08\u8303\u5927\u5b66\u96c1\u5c71\u6821\u533a
p7779
sVschool_district
p7780
g1
(g2
g3
Ntp7781
Rp7782
S'U\x01@\xafw\x8d\x17\x15\xb9B\x0e\x1f'
p7783
bsVmobile
p7784
V18290107225
p7785
sVmin_cost_to_deliver
p7786
I0
sVdelivery_price
p7787
I100
sVimage_id
p7788
g1
(g2
g3
Ntp7789
Rp7790
S'U\x01@\xacw\x8d\x17\x15\xb9B\r\xfd'
p7791
bsVopen_hour
p7792
(lp7793
I0
aI86400
asVlocation
p7794
(lp7795
F110.293979
aF25.097414
asVaddress
p7796
V\u5e7f\u897f\u58ee\u65cf\u81ea\u6cbb\u533a\u6842\u6797\u5e02\u96c1\u5c71\u533a
p7797
sVcreated_time
p7798
L1426145473950L
sV_id
p7799
g7773
sVtype
p7800
Vcvs
p7801
ssg1
(g2
g3
Ntp7802
Rp7803
S'U\x01@\xc1w\x8d\x17\x15\xb9B\x11O'
p7804
b(dp7805
Vstatus
p7806
Vopen
p7807
sVname
p7808
V\u4e2d\u5317\u5927\u5b66\u6714\u5dde\u6821\u533a
p7809
sVschool_district
p7810
g1
(g2
g3
Ntp7811
Rp7812
S'U\x01@\xbbw\x8d\x17\x15\xb9B\x0e\xc0'
p7813
bsVmobile
p7814
V18334958513
p7815
sVmin_cost_to_deliver
p7816
I0
sVdelivery_price
p7817
I100
sVimage_id
p7818
g1
(g2
g3
Ntp7819
Rp7820
S'U\x01@\xacw\x8d\x17\x15\xb9B\r\xfd'
p7821
bsVopen_hour
p7822
(lp7823
I0
aI86400
asVlocation
p7824
(lp7825
F112.442095
aF39.373073
asVaddress
p7826
V\u5c71\u897f\u7701\u6714\u5dde\u5e02\u6714\u57ce\u533a\u5f00\u53d1\u5317\u8def
p7827
sVcreated_time
p7828
L1426145473732L
sV_id
p7829
g7803
sVtype
p7830
Vcvs
p7831
ssg1
(g2
g3
Ntp7832
Rp7833
S'U\x01@\xc1w\x8d\x17\x15\xb9B\x10\xb7'
p7834
b(dp7835
Vstatus
p7836
Vopen
p7837
sVname
p7838
V\u4e91\u5357\u8d22\u7ecf\u5927\u5b66\u5448\u8d21\u6821\u533a
p7839
sVschool_district
p7840
g1
(g2
g3
Ntp7841
Rp7842
S'U\x01@\xbaw\x8d\x17\x15\xb9B\x0e\xad'
p7843
bsVmobile
p7844
V18487396058
p7845
sVmin_cost_to_deliver
p7846
I0
sVdelivery_price
p7847
I100
sVimage_id
p7848
g1
(g2
g3
Ntp7849
Rp7850
S'U\x01@\xacw\x8d\x17\x15\xb9B\r\xfd'
p7851
bsVopen_hour
p7852
(lp7853
I0
aI86400
asVlocation
p7854
(lp7855
F102.80897
aF24.772669
asVaddress
p7856
V\u4e91\u5357\u7701\u6606\u660e\u5e02\u5448\u8d21\u533a
p7857
sVcreated_time
p7858
L1426145473678L
sV_id
p7859
g7833
sVtype
p7860
Vcvs
p7861
ssg1
(g2
g3
Ntp7862
Rp7863
S'U\x01@\xc1w\x8d\x17\x15\xb9B\x13\xff'
p7864
b(dp7865
Vstatus
p7866
Vopen
p7867
sVname
p7868
V\u5e7f\u5dde\u5927\u5b66\u5927\u5b66\u57ce\u6821\u533a
p7869
sVschool_district
p7870
g1
(g2
g3
Ntp7871
Rp7872
S'U\x01@\xafw\x8d\x17\x15\xb9B\x0e '
p7873
bsVmobile
p7874
V18826053895
p7875
sVmin_cost_to_deliver
p7876
I0
sVdelivery_price
p7877
I100
sVimage_id
p7878
g1
(g2
g3
Ntp7879
Rp7880
S'U\x01@\xacw\x8d\x17\x15\xb9B\r\xfd'
p7881
bsVopen_hour
p7882
(lp7883
I0
aI86400
asVlocation
p7884
(lp7885
F113.370537
aF23.040482
asVaddress
p7886
V\u5e7f\u4e1c\u7701\u5e7f\u5dde\u5e02\u756a\u79ba\u533a\u897f\u516d\u8def
p7887
sVcreated_time
p7888
L1426145473952L
sV_id
p7889
g7863
sVtype
p7890
Vcvs
p7891
ssg1
(g2
g3
Ntp7892
Rp7893
S'U\x01@\xc1w\x8d\x17\x15\xb9B\x11G'
p7894
b(dp7895
Vstatus
p7896
Vopen
p7897
sVname
p7898
V\u90d1\u5dde\u5927\u5b66\u65b0\u6821\u533a
p7899
sVschool_district
p7900
g1
(g2
g3
Ntp7901
Rp7902
S'U\x01@\xbbw\x8d\x17\x15\xb9B\x0e\xbf'
p7903
bsVmobile
p7904
V17839938281
p7905
sVmin_cost_to_deliver
p7906
I0
sVdelivery_price
p7907
I100
sVimage_id
p7908
g1
(g2
g3
Ntp7909
Rp7910
S'U\x01@\xacw\x8d\x17\x15\xb9B\r\xfd'
p7911
bsVopen_hour
p7912
(lp7913
I0
aI86400
asVlocation
p7914
(lp7915
F113.535675
aF34.817291
asVaddress
p7916
V\u6cb3\u5357\u7701\u90d1\u5dde\u5e02\u4e2d\u539f\u533a\u897f\u56db\u73af
p7917
sVcreated_time
p7918
L1426145473730L
sV_id
p7919
g7893
sVtype
p7920
Vcvs
p7921
ssg1
(g2
g3
Ntp7922
Rp7923
S'U\x01@\xc1w\x8d\x17\x15\xb9B\x10\xbf'
p7924
b(dp7925
Vstatus
p7926
Vopen
p7927
sVname
p7928
V\u4e91\u5357\u5927\u5b66\u5448\u8d21\u6821\u533a
p7929
sVschool_district
p7930
g1
(g2
g3
Ntp7931
Rp7932
S'U\x01@\xbaw\x8d\x17\x15\xb9B\x0e\xae'
p7933
bsVmobile
p7934
V18487251260
p7935
sVmin_cost_to_deliver
p7936
I0
sVdelivery_price
p7937
I100
sVimage_id
p7938
g1
(g2
g3
Ntp7939
Rp7940
S'U\x01@\xacw\x8d\x17\x15\xb9B\r\xfd'
p7941
bsVopen_hour
p7942
(lp7943
I0
aI86400
asVlocation
p7944
(lp7945
F102.849497
aF24.826761
asVaddress
p7946
V\u4e91\u5357\u7701\u6606\u660e\u5e02\u5448\u8d21\u533a
p7947
sVcreated_time
p7948
L1426145473683L
sV_id
p7949
g7923
sVtype
p7950
Vcvs
p7951
ssg1
(g2
g3
Ntp7952
Rp7953
S'U\x01@\xc1w\x8d\x17\x15\xb9B\x13\xe7'
p7954
b(dp7955
Vstatus
p7956
Vopen
p7957
sVname
p7958
V\u5e7f\u4e1c\u6c34\u5229\u7535\u529b\u804c\u4e1a\u6280\u672f\u5b66\u9662\u4ece\u5316\u6821\u533a
p7959
sVschool_district
p7960
g1
(g2
g3
Ntp7961
Rp7962
S'U\x01@\xafw\x8d\x17\x15\xb9B\x0e\x1d'
p7963
bsVmobile
p7964
V18819459818
p7965
sVmin_cost_to_deliver
p7966
I0
sVdelivery_price
p7967
I100
sVimage_id
p7968
g1
(g2
g3
Ntp7969
Rp7970
S'U\x01@\xacw\x8d\x17\x15\xb9B\r\xfd'
p7971
bsVopen_hour
p7972
(lp7973
I0
aI86400
asVlocation
p7974
(lp7975
F113.612955
aF23.560506
asVaddress
p7976
V\u5e7f\u4e1c\u7701\u5e7f\u5dde\u5e02\u4ece\u5316\u5e02\u8fce\u5bbe\u5927\u9053
p7977
sVcreated_time
p7978
L1426145473945L
sV_id
p7979
g7953
sVtype
p7980
Vcvs
p7981
ssg1
(g2
g3
Ntp7982
Rp7983
S'U\x01@\xc1w\x8d\x17\x15\xb9B\x11_'
p7984
b(dp7985
Vstatus
p7986
Vopen
p7987
sVname
p7988
V\u4e2d\u56fd\u4f20\u5a92\u5927\u5b66\u5357\u5e7f\u5b66\u9662\u4e3b\u6821\u533a
p7989
sVschool_district
p7990
g1
(g2
g3
Ntp7991
Rp7992
S'U\x01@\xbbw\x8d\x17\x15\xb9B\x0e\xc2'
p7993
bsVmobile
p7994
V13770303519
p7995
sVmin_cost_to_deliver
p7996
I0
sVdelivery_price
p7997
I100
sVimage_id
p7998
g1
(g2
g3
Ntp7999
Rp8000
S'U\x01@\xacw\x8d\x17\x15\xb9B\r\xfd'
p8001
bsVopen_hour
p8002
(lp8003
I0
aI86400
asVlocation
p8004
(lp8005
F118.890008
aF31.884117
asVaddress
p8006
V\u6c5f\u82cf\u7701\u5357\u4eac\u5e02\u6c5f\u5b81\u533a\u9f99\u845b\u8def
p8007
sVcreated_time
p8008
L1426145473738L
sV_id
p8009
g7983
sVtype
p8010
Vcvs
p8011
ssg1
(g2
g3
Ntp8012
Rp8013
S'U\x01@\xc1w\x8d\x17\x15\xb9B\x12\x87'
p8014
b(dp8015
Vstatus
p8016
Vopen
p8017
sVname
p8018
V\u5e73\u9876\u5c71\u5b66\u9662\u533b\u5b66\u9662\u4e3b\u6821\u533a
p8019
sVschool_district
p8020
g1
(g2
g3
Ntp8021
Rp8022
S'U\x01@\xbew\x8d\x17\x15\xb9B\x0e\xe7'
p8023
bsVmobile
p8024
V13213817727
p8025
sVmin_cost_to_deliver
p8026
I0
sVdelivery_price
p8027
I100
sVimage_id
p8028
g1
(g2
g3
Ntp8029
Rp8030
S'U\x01@\xacw\x8d\x17\x15\xb9B\r\xfd'
p8031
bsVopen_hour
p8032
(lp8033
I0
aI86400
asVlocation
p8034
(lp8035
F113.178653
aF33.773482
asVaddress
p8036
V\u6cb3\u5357\u7701\u5e73\u9876\u5c71\u5e02\u65b0\u534e\u533a\u6e56\u6ee8\u8def
p8037
sVcreated_time
p8038
L1426145473832L
sV_id
p8039
g8013
sVtype
p8040
Vcvs
p8041
ssg1
(g2
g3
Ntp8042
Rp8043
S'U\x01@\xc1w\x8d\x17\x15\xb9B\x10\xa7'
p8044
b(dp8045
Vstatus
p8046
Vopen
p8047
sVname
p8048
V\u6986\u6797\u5b66\u9662\u4e3b\u6821\u533a
p8049
sVschool_district
p8050
g1
(g2
g3
Ntp8051
Rp8052
S'U\x01@\xbaw\x8d\x17\x15\xb9B\x0e\xab'
p8053
bsVmobile
p8054
V18079475358
p8055
sVmin_cost_to_deliver
p8056
I0
sVdelivery_price
p8057
I100
sVimage_id
p8058
g1
(g2
g3
Ntp8059
Rp8060
S'U\x01@\xacw\x8d\x17\x15\xb9B\r\xfd'
p8061
bsVopen_hour
p8062
(lp8063
I0
aI86400
asVlocation
p8064
(lp8065
F109.723977
aF38.292631
asVaddress
p8066
V\u9655\u897f\u7701\u6986\u6797\u5e02\u6986\u9633\u533a\u5174\u6986\u8def
p8067
sVcreated_time
p8068
L1426145473673L
sV_id
p8069
g8043
sVtype
p8070
Vcvs
p8071
ssg1
(g2
g3
Ntp8072
Rp8073
S'U\x01@\xc1w\x8d\x17\x15\xb9B\x13\xef'
p8074
b(dp8075
Vstatus
p8076
Vopen
p8077
sVname
p8078
V\u5e7f\u897f\u79d1\u6280\u5927\u5b66\u9e7f\u5c71\u5b66\u9662
p8079
sVschool_district
p8080
g1
(g2
g3
Ntp8081
Rp8082
S'U\x01@\xafw\x8d\x17\x15\xb9B\x0e\x1e'
p8083
bsVmobile
p8084
V13211529653
p8085
sVmin_cost_to_deliver
p8086
I0
sVdelivery_price
p8087
I100
sVimage_id
p8088
g1
(g2
g3
Ntp8089
Rp8090
S'U\x01@\xacw\x8d\x17\x15\xb9B\r\xfd'
p8091
bsVopen_hour
p8092
(lp8093
I0
aI86400
asVlocation
p8094
(lp8095
F109.532789
aF24.362286
asVaddress
p8096
V\u5e7f\u897f\u58ee\u65cf\u81ea\u6cbb\u533a\u67f3\u5dde\u5e02\u9e7f\u5be8\u53bf
p8097
sVcreated_time
p8098
L1426145473947L
sV_id
p8099
g8073
sVtype
p8100
Vcvs
p8101
ssg1
(g2
g3
Ntp8102
Rp8103
S'U\x01@\xc1w\x8d\x17\x15\xb9B\x11W'
p8104
b(dp8105
Vstatus
p8106
Vopen
p8107
sVname
p8108
V\u4e2d\u5317\u5927\u5b66\u4e3b\u6821\u533a
p8109
sVschool_district
p8110
g1
(g2
g3
Ntp8111
Rp8112
S'U\x01@\xbbw\x8d\x17\x15\xb9B\x0e\xc1'
p8113
bsVmobile
p8114
V13935101496
p8115
sVmin_cost_to_deliver
p8116
I0
sVdelivery_price
p8117
I100
sVimage_id
p8118
g1
(g2
g3
Ntp8119
Rp8120
S'U\x01@\xacw\x8d\x17\x15\xb9B\r\xfd'
p8121
bsVopen_hour
p8122
(lp8123
I0
aI86400
asVlocation
p8124
(lp8125
F112.441849
aF38.010619
asVaddress
p8126
V\u5c71\u897f\u7701\u592a\u539f\u5e02\u5c16\u8349\u576a\u533a\u6c7e\u6cc9\u8def
p8127
sVcreated_time
p8128
L1426145473735L
sV_id
p8129
g8103
sVtype
p8130
Vcvs
p8131
ssg1
(g2
g3
Ntp8132
Rp8133
S'U\x01@\xc1w\x8d\x17\x15\xb9B\x10\xaf'
p8134
b(dp8135
Vstatus
p8136
Vopen
p8137
sVname
p8138
V\u4e91\u5357\u8d22\u7ecf\u5927\u5b66\u4e3b\u6821\u533a
p8139
sVschool_district
p8140
g1
(g2
g3
Ntp8141
Rp8142
S'U\x01@\xbaw\x8d\x17\x15\xb9B\x0e\xac'
p8143
bsVmobile
p8144
V18487165955
p8145
sVmin_cost_to_deliver
p8146
I0
sVdelivery_price
p8147
I100
sVimage_id
p8148
g1
(g2
g3
Ntp8149
Rp8150
S'U\x01@\xacw\x8d\x17\x15\xb9B\r\xfd'
p8151
bsVopen_hour
p8152
(lp8153
I0
aI86400
asVlocation
p8154
(lp8155
F102.717748
aF25.080429
asVaddress
p8156
V\u4e91\u5357\u7701\u6606\u660e\u5e02\u4e94\u534e\u533a\u9f99\u6cc9\u8def187\u53f7-\u96445
p8157
sVcreated_time
p8158
L1426145473676L
sV_id
p8159
g8133
sVtype
p8160
Vcvs
p8161
ss.