(lp0
(dp1
Vstatus
p2
Vopen
p3
sVname
p4
V\u8bb8\u660c\u5b66\u9662\u897f\u6821\u533a
p5
sVschool_district
p6
ccopy_reg
_reconstructor
p7
(cbson.objectid
ObjectId
p8
c__builtin__
object
p9
Ntp10
Rp11
S'U\x01@\xbaw\x8d\x17\x15\xb9B\x0e\xa9'
p12
bsVmobile
p13
V13213387456
p14
sVmin_cost_to_deliver
p15
I0
sVdelivery_price
p16
F0.0
sVimage_id
p17
g7
(g8
g9
Ntp18
Rp19
S'U\x01@\xacw\x8d\x17\x15\xb9B\r\xfd'
p20
bsVopen_hour
p21
(lp22
L25200L
aI86400
asVlocation
p23
(lp24
F113.868854
aF34.042257
asVaddress
p25
V\u6cb3\u5357\u7701\u8bb8\u660c\u5e02\u9b4f\u90fd\u533a\u5efa\u5b89\u5927\u9053\u4e1c\u6bb5
p26
sVcreated_time
p27
L1426145473669L
sV_id
p28
g7
(g8
g9
Ntp29
Rp30
S'U\x01@\xc1w\x8d\x17\x15\xb9B\x10\x97'
p31
bsVtype
p32
Vcvs
p33
sa(dp34
Vstatus
p35
Vopen
p36
sVname
p37
V\u8bb8\u660c\u5b66\u9662\u897f\u6821\u533a
p38
sVschool_district
p39
g7
(g8
g9
Ntp40
Rp41
S'U\x01@\xbaw\x8d\x17\x15\xb9B\x0e\xa9'
p42
bsVmobile
p43
V13213387456
p44
sVmin_cost_to_deliver
p45
I0
sVdelivery_price
p46
F0.0
sVimage_id
p47
g7
(g8
g9
Ntp48
Rp49
S'U\x01@\xacw\x8d\x17\x15\xb9B\r\xfd'
p50
bsVopen_hour
p51
(lp52
L25200L
aI86400
asVlocation
p53
(lp54
F113.868854
aF34.042257
asVaddress
p55
V\u6cb3\u5357\u7701\u8bb8\u660c\u5e02\u9b4f\u90fd\u533a\u5efa\u5b89\u5927\u9053\u4e1c\u6bb5
p56
sVcreated_time
p57
L1426145473669L
sV_id
p58
g7
(g8
g9
Ntp59
Rp60
S'U\x01@\xc1w\x8d\x17\x15\xb9B\x10\x97'
p61
bsVtype
p62
Vcvs
p63
sa(dp64
Vstatus
p65
Vopen
p66
sVname
p67
V\u8bb8\u660c\u5b66\u9662\u897f\u6821\u533a
p68
sVschool_district
p69
g7
(g8
g9
Ntp70
Rp71
S'U\x01@\xbaw\x8d\x17\x15\xb9B\x0e\xa9'
p72
bsVmobile
p73
V13213387456
p74
sVmin_cost_to_deliver
p75
I0
sVdelivery_price
p76
F0.0
sVimage_id
p77
g7
(g8
g9
Ntp78
Rp79
S'U\x01@\xacw\x8d\x17\x15\xb9B\r\xfd'
p80
bsVopen_hour
p81
(lp82
L25200L
aI86400
asVlocation
p83
(lp84
F113.868854
aF34.042257
asVaddress
p85
V\u6cb3\u5357\u7701\u8bb8\u660c\u5e02\u9b4f\u90fd\u533a\u5efa\u5b89\u5927\u9053\u4e1c\u6bb5
p86
sVcreated_time
p87
L1426145473669L
sV_id
p88
g7
(g8
g9
Ntp89
Rp90
S'U\x01@\xc1w\x8d\x17\x15\xb9B\x10\x97'
p91
bsVtype
p92
Vcvs
p93
sa(dp94
Vstatus
p95
Vopen
p96
sVname
p97
V\u6b66\u6c49\u79d1\u6280\u5927\u5b66\u57ce\u5e02\u5b66\u9662\u4e3b\u6821\u533a
p98
sVschool_district
p99
g7
(g8
g9
Ntp100
Rp101
S'U\x01@\xbfw\x8d\x17\x15\xb9B\x0e\xf2'
p102
bsVmobile
p103
V13971050902
p104
sVmin_cost_to_deliver
p105
I0
sVdelivery_price
p106
F0.0
sVimage_id
p107
g7
(g8
g9
Ntp108
Rp109
S'U\x01@\xacw\x8d\x17\x15\xb9B\r\xfd'
p110
bsVopen_hour
p111
(lp112
L25200L
aI86400
asVlocation
p113
(lp114
F114.432914
aF30.591851
asVaddress
p115
V\u6e56\u5317\u7701\u6b66\u6c49\u5e02\u6d2a\u5c71\u533a\u96c1\u4e2d\u8def
p116
sVcreated_time
p117
L1426145473856L
sV_id
p118
g7
(g8
g9
Ntp119
Rp120
S'U\x01@\xc1w\x8d\x17\x15\xb9B\x12\xd7'
p121
bsVtype
p122
Vcvs
p123
sa(dp124
Vstatus
p125
Vopen
p126
sVname
p127
V\u6b66\u6c49\u79d1\u6280\u5927\u5b66\u57ce\u5e02\u5b66\u9662\u4e3b\u6821\u533a\u70df\u5e97
p128
sVschool_district
p129
g7
(g8
g9
Ntp130
Rp131
S'U\x01@\xbfw\x8d\x17\x15\xb9B\x0e\xf2'
p132
bsVmobile
p133
V13971050902
p134
sVmin_cost_to_deliver
p135
I0
sVdelivery_price
p136
L100L
sVimage_id
p137
g7
(g8
g9
Ntp138
Rp139
S'U\x01@\xacw\x8d\x17\x15\xb9B\r\xfd'
p140
bsVopen_hour
p141
(lp142
L25200L
aI86400
asVlocation
p143
(lp144
F114.432914
aF30.591851
asVaddress
p145
V\u6e56\u5317\u7701\u6b66\u6c49\u5e02\u6d2a\u5c71\u533a\u96c1\u4e2d\u8def
p146
sVcreated_time
p147
L1426670611958L
sV_id
p148
g7
(g8
g9
Ntp149
Rp150
S'U\tD\x13_x\x1f*\xfb\x07\xe6\x91'
p151
bsVtype
p152
Vcvs
p153
sa(dp154
Vstatus
p155
Vopen
p156
sVname
p157
V\u6b66\u6c49\u79d1\u6280\u5927\u5b66\u57ce\u5e02\u5b66\u9662\u4e3b\u6821\u533a
p158
sVschool_district
p159
g7
(g8
g9
Ntp160
Rp161
S'U\x01@\xbfw\x8d\x17\x15\xb9B\x0e\xf2'
p162
bsVmobile
p163
V13971050902
p164
sVmin_cost_to_deliver
p165
I0
sVdelivery_price
p166
F0.0
sVimage_id
p167
g7
(g8
g9
Ntp168
Rp169
S'U\x01@\xacw\x8d\x17\x15\xb9B\r\xfd'
p170
bsVopen_hour
p171
(lp172
L25200L
aI86400
asVlocation
p173
(lp174
F114.432914
aF30.591851
asVaddress
p175
V\u6e56\u5317\u7701\u6b66\u6c49\u5e02\u6d2a\u5c71\u533a\u96c1\u4e2d\u8def
p176
sVcreated_time
p177
L1426145473856L
sV_id
p178
g7
(g8
g9
Ntp179
Rp180
S'U\x01@\xc1w\x8d\x17\x15\xb9B\x12\xd7'
p181
bsVtype
p182
Vcvs
p183
sa(dp184
Vstatus
p185
Vopen
p186
sVname
p187
V\u6b66\u6c49\u79d1\u6280\u5927\u5b66\u57ce\u5e02\u5b66\u9662\u4e3b\u6821\u533a\u70df\u5e97
p188
sVschool_district
p189
g7
(g8
g9
Ntp190
Rp191
S'U\x01@\xbfw\x8d\x17\x15\xb9B\x0e\xf2'
p192
bsVmobile
p193
V13971050902
p194
sVmin_cost_to_deliver
p195
I0
sVdelivery_price
p196
L100L
sVimage_id
p197
g7
(g8
g9
Ntp198
Rp199
S'U\x01@\xacw\x8d\x17\x15\xb9B\r\xfd'
p200
bsVopen_hour
p201
(lp202
L25200L
aI86400
asVlocation
p203
(lp204
F114.432914
aF30.591851
asVaddress
p205
V\u6e56\u5317\u7701\u6b66\u6c49\u5e02\u6d2a\u5c71\u533a\u96c1\u4e2d\u8def
p206
sVcreated_time
p207
L1426670611958L
sV_id
p208
g7
(g8
g9
Ntp209
Rp210
S'U\tD\x13_x\x1f*\xfb\x07\xe6\x91'
p211
bsVtype
p212
Vcvs
p213
sa(dp214
Vstatus
p215
Vopen
p216
sVname
p217
V\u6b66\u6c49\u79d1\u6280\u5927\u5b66\u57ce\u5e02\u5b66\u9662\u4e3b\u6821\u533a
p218
sVschool_district
p219
g7
(g8
g9
Ntp220
Rp221
S'U\x01@\xbfw\x8d\x17\x15\xb9B\x0e\xf2'
p222
bsVmobile
p223
V13971050902
p224
sVmin_cost_to_deliver
p225
I0
sVdelivery_price
p226
F0.0
sVimage_id
p227
g7
(g8
g9
Ntp228
Rp229
S'U\x01@\xacw\x8d\x17\x15\xb9B\r\xfd'
p230
bsVopen_hour
p231
(lp232
L25200L
aI86400
asVlocation
p233
(lp234
F114.432914
aF30.591851
asVaddress
p235
V\u6e56\u5317\u7701\u6b66\u6c49\u5e02\u6d2a\u5c71\u533a\u96c1\u4e2d\u8def
p236
sVcreated_time
p237
L1426145473856L
sV_id
p238
g7
(g8
g9
Ntp239
Rp240
S'U\x01@\xc1w\x8d\x17\x15\xb9B\x12\xd7'
p241
bsVtype
p242
Vcvs
p243
sa(dp244
Vstatus
p245
Vopen
p246
sVname
p247
V\u6b66\u6c49\u79d1\u6280\u5927\u5b66\u57ce\u5e02\u5b66\u9662\u4e3b\u6821\u533a
p248
sVschool_district
p249
g7
(g8
g9
Ntp250
Rp251
S'U\x01@\xbfw\x8d\x17\x15\xb9B\x0e\xf2'
p252
bsVmobile
p253
V13971050902
p254
sVmin_cost_to_deliver
p255
I0
sVdelivery_price
p256
F0.0
sVimage_id
p257
g7
(g8
g9
Ntp258
Rp259
S'U\x01@\xacw\x8d\x17\x15\xb9B\r\xfd'
p260
bsVopen_hour
p261
(lp262
L25200L
aI86400
asVlocation
p263
(lp264
F114.432914
aF30.591851
asVaddress
p265
V\u6e56\u5317\u7701\u6b66\u6c49\u5e02\u6d2a\u5c71\u533a\u96c1\u4e2d\u8def
p266
sVcreated_time
p267
L1426145473856L
sV_id
p268
g7
(g8
g9
Ntp269
Rp270
S'U\x01@\xc1w\x8d\x17\x15\xb9B\x12\xd7'
p271
bsVtype
p272
Vcvs
p273
sa(dp274
Vstatus
p275
Vopen
p276
sVname
p277
V\u6b66\u6c49\u79d1\u6280\u5927\u5b66\u57ce\u5e02\u5b66\u9662\u4e3b\u6821\u533a\u70df\u5e97
p278
sVschool_district
p279
g7
(g8
g9
Ntp280
Rp281
S'U\x01@\xbfw\x8d\x17\x15\xb9B\x0e\xf2'
p282
bsVmobile
p283
V13971050902
p284
sVmin_cost_to_deliver
p285
I0
sVdelivery_price
p286
L100L
sVimage_id
p287
g7
(g8
g9
Ntp288
Rp289
S'U\x01@\xacw\x8d\x17\x15\xb9B\r\xfd'
p290
bsVopen_hour
p291
(lp292
L25200L
aI86400
asVlocation
p293
(lp294
F114.432914
aF30.591851
asVaddress
p295
V\u6e56\u5317\u7701\u6b66\u6c49\u5e02\u6d2a\u5c71\u533a\u96c1\u4e2d\u8def
p296
sVcreated_time
p297
L1426670611958L
sV_id
p298
g7
(g8
g9
Ntp299
Rp300
S'U\tD\x13_x\x1f*\xfb\x07\xe6\x91'
p301
bsVtype
p302
Vcvs
p303
sa(dp304
Vstatus
p305
Vopen
p306
sVname
p307
V\u6b66\u6c49\u79d1\u6280\u5927\u5b66\u57ce\u5e02\u5b66\u9662\u4e3b\u6821\u533a
p308
sVschool_district
p309
g7
(g8
g9
Ntp310
Rp311
S'U\x01@\xbfw\x8d\x17\x15\xb9B\x0e\xf2'
p312
bsVmobile
p313
V13971050902
p314
sVmin_cost_to_deliver
p315
I0
sVdelivery_price
p316
F0.0
sVimage_id
p317
g7
(g8
g9
Ntp318
Rp319
S'U\x01@\xacw\x8d\x17\x15\xb9B\r\xfd'
p320
bsVopen_hour
p321
(lp322
L25200L
aI86400
asVlocation
p323
(lp324
F114.432914
aF30.591851
asVaddress
p325
V\u6e56\u5317\u7701\u6b66\u6c49\u5e02\u6d2a\u5c71\u533a\u96c1\u4e2d\u8def
p326
sVcreated_time
p327
L1426145473856L
sV_id
p328
g7
(g8
g9
Ntp329
Rp330
S'U\x01@\xc1w\x8d\x17\x15\xb9B\x12\xd7'
p331
bsVtype
p332
Vcvs
p333
sa(dp334
Vstatus
p335
Vopen
p336
sVname
p337
V\u6b66\u6c49\u79d1\u6280\u5927\u5b66\u57ce\u5e02\u5b66\u9662\u4e3b\u6821\u533a
p338
sVschool_district
p339
g7
(g8
g9
Ntp340
Rp341
S'U\x01@\xbfw\x8d\x17\x15\xb9B\x0e\xf2'
p342
bsVmobile
p343
V13971050902
p344
sVmin_cost_to_deliver
p345
I0
sVdelivery_price
p346
F0.0
sVimage_id
p347
g7
(g8
g9
Ntp348
Rp349
S'U\x01@\xacw\x8d\x17\x15\xb9B\r\xfd'
p350
bsVopen_hour
p351
(lp352
L25200L
aI86400
asVlocation
p353
(lp354
F114.432914
aF30.591851
asVaddress
p355
V\u6e56\u5317\u7701\u6b66\u6c49\u5e02\u6d2a\u5c71\u533a\u96c1\u4e2d\u8def
p356
sVcreated_time
p357
L1426145473856L
sV_id
p358
g7
(g8
g9
Ntp359
Rp360
S'U\x01@\xc1w\x8d\x17\x15\xb9B\x12\xd7'
p361
bsVtype
p362
Vcvs
p363
sa(dp364
Vstatus
p365
Vopen
p366
sVname
p367
V\u6b66\u6c49\u79d1\u6280\u5927\u5b66\u57ce\u5e02\u5b66\u9662\u4e3b\u6821\u533a
p368
sVschool_district
p369
g7
(g8
g9
Ntp370
Rp371
S'U\x01@\xbfw\x8d\x17\x15\xb9B\x0e\xf2'
p372
bsVmobile
p373
V13971050902
p374
sVmin_cost_to_deliver
p375
I0
sVdelivery_price
p376
F0.0
sVimage_id
p377
g7
(g8
g9
Ntp378
Rp379
S'U\x01@\xacw\x8d\x17\x15\xb9B\r\xfd'
p380
bsVopen_hour
p381
(lp382
L25200L
aI86400
asVlocation
p383
(lp384
F114.432914
aF30.591851
asVaddress
p385
V\u6e56\u5317\u7701\u6b66\u6c49\u5e02\u6d2a\u5c71\u533a\u96c1\u4e2d\u8def
p386
sVcreated_time
p387
L1426145473856L
sV_id
p388
g7
(g8
g9
Ntp389
Rp390
S'U\x01@\xc1w\x8d\x17\x15\xb9B\x12\xd7'
p391
bsVtype
p392
Vcvs
p393
sa(dp394
Vstatus
p395
Vopen
p396
sVname
p397
V\u6b66\u6c49\u79d1\u6280\u5927\u5b66\u57ce\u5e02\u5b66\u9662\u4e3b\u6821\u533a
p398
sVschool_district
p399
g7
(g8
g9
Ntp400
Rp401
S'U\x01@\xbfw\x8d\x17\x15\xb9B\x0e\xf2'
p402
bsVmobile
p403
V13971050902
p404
sVmin_cost_to_deliver
p405
I0
sVdelivery_price
p406
F0.0
sVimage_id
p407
g7
(g8
g9
Ntp408
Rp409
S'U\x01@\xacw\x8d\x17\x15\xb9B\r\xfd'
p410
bsVopen_hour
p411
(lp412
L25200L
aI86400
asVlocation
p413
(lp414
F114.432914
aF30.591851
asVaddress
p415
V\u6e56\u5317\u7701\u6b66\u6c49\u5e02\u6d2a\u5c71\u533a\u96c1\u4e2d\u8def
p416
sVcreated_time
p417
L1426145473856L
sV_id
p418
g7
(g8
g9
Ntp419
Rp420
S'U\x01@\xc1w\x8d\x17\x15\xb9B\x12\xd7'
p421
bsVtype
p422
Vcvs
p423
sa(dp424
Vstatus
p425
Vopen
p426
sVname
p427
V\u6b66\u6c49\u79d1\u6280\u5927\u5b66\u57ce\u5e02\u5b66\u9662\u4e3b\u6821\u533a
p428
sVschool_district
p429
g7
(g8
g9
Ntp430
Rp431
S'U\x01@\xbfw\x8d\x17\x15\xb9B\x0e\xf2'
p432
bsVmobile
p433
V13971050902
p434
sVmin_cost_to_deliver
p435
I0
sVdelivery_price
p436
F0.0
sVimage_id
p437
g7
(g8
g9
Ntp438
Rp439
S'U\x01@\xacw\x8d\x17\x15\xb9B\r\xfd'
p440
bsVopen_hour
p441
(lp442
L25200L
aI86400
asVlocation
p443
(lp444
F114.432914
aF30.591851
asVaddress
p445
V\u6e56\u5317\u7701\u6b66\u6c49\u5e02\u6d2a\u5c71\u533a\u96c1\u4e2d\u8def
p446
sVcreated_time
p447
L1426145473856L
sV_id
p448
g7
(g8
g9
Ntp449
Rp450
S'U\x01@\xc1w\x8d\x17\x15\xb9B\x12\xd7'
p451
bsVtype
p452
Vcvs
p453
sa.